(dp0
S''
p1
(lp2
S'<N>'
p3
aS'<N>'
p4
aS'<N>'
p5
aS'<N>'
p6
aS'<N>'
p7
aS'<N>'
p8
aS'<N>'
p9
aS'<N>'
p10
aS'<N>'
p11
aS'<N>'
p12
aS'<N>'
p13
aS'<N>'
p14
aS'<N>'
p15
aS'<N>'
p16
aS'<N>'
p17
aS'<N>'
p18
aS'<N>'
p19
aS'<N>'
p20
aS'<N>'
p21
aS'<N>'
p22
aS'<N>'
p23
aS'<N>'
p24
aS'<N>'
p25
aS'<N>'
p26
aS'<N>'
p27
aS'<N>'
p28
aS'<N>'
p29
aS'<N>'
p30
aS'<N>'
p31
aS'<N>'
p32
aS'<N>'
p33
aS'<N>'
p34
aS'<N>'
p35
aS'<N>'
p36
aS'<N>'
p37
aS'<N>'
p38
aS'<N>'
p39
aS'<N>'
p40
aS'<N>'
p41
aS'<N>'
p42
aS'<N>'
p43
aS'<N>'
p44
aS'<N>'
p45
aS'<N>'
p46
aS'<N>'
p47
aS'<N>'
p48
aS'<N>'
p49
aS'<N>'
p50
aS'<N>'
p51
aS'<N>'
p52
aS'<N>'
p53
aS'<N>'
p54
aS'<N>'
p55
aS'<N>'
p56
aS'<N>'
p57
aS'<N>'
p58
aS'<N>'
p59
aS'<N>'
p60
aS'<N>'
p61
aS'<N>'
p62
aS'<N>'
p63
aS'<N>'
p64
aS'<N>'
p65
aS'<N>'
p66
aS'<N>'
p67
aS'<N>'
p68
aS'<N>'
p69
aS'<N>'
p70
aS'<N>'
p71
aS'<N>'
p72
aS'<N>'
p73
aS'<N>'
p74
aS'<N>'
p75
aS'<N>'
p76
aS'<N>'
p77
aS'<N>'
p78
aS'<N>'
p79
aS'<N>'
p80
aS'<N>'
p81
aS'<N>'
p82
aS'<N>'
p83
aS'<N>'
p84
aS'<N>'
p85
aS'<N>'
p86
aS'<N>'
p87
aS'<N>'
p88
aS'<N>'
p89
aS'<N>'
p90
aS'<N>'
p91
aS'<N>'
p92
aS'<N>'
p93
aS'<N>'
p94
aS'<N>'
p95
aS'<N>'
p96
aS'<N>'
p97
aS'<N>'
p98
aS'<N>'
p99
aS'<N>'
p100
aS'<N>'
p101
aS'<N>'
p102
aS'<N>'
p103
aS'<N>'
p104
aS'<N>'
p105
aS'<N>'
p106
aS'<N>'
p107
aS'<N>'
p108
aS'<N>'
p109
aS'<N>'
p110
aS'<N>'
p111
aS'<N>'
p112
aS'<N>'
p113
aS'<N>'
p114
aS'<N>'
p115
aS'<N>'
p116
aS'<N>'
p117
aS'<N>'
p118
aS'<N>'
p119
aS'<N>'
p120
aS'<N>'
p121
aS'<N>'
p122
aS'<N>'
p123
aS'<N>'
p124
aS'<N>'
p125
aS'<N>'
p126
aS'<N>'
p127
aS'<N>'
p128
aS'<N>'
p129
aS'<N>'
p130
aS'<N>'
p131
aS'<N>'
p132
aS'<N>'
p133
aS'<N>'
p134
aS'<N>'
p135
aS'<N>'
p136
aS'<N>'
p137
aS'<N>'
p138
aS'<N>'
p139
aS'<N>'
p140
aS'<N>'
p141
aS'<N>'
p142
aS'<N>'
p143
aS'<N>'
p144
aS'<N>'
p145
aS'<N>'
p146
aS'<N>'
p147
aS'<N>'
p148
aS'<N>'
p149
aS'<N>'
p150
aS'<N>'
p151
aS'<N>'
p152
aS'<N>'
p153
aS'<N>'
p154
aS'<N>'
p155
aS'<N>'
p156
aS'<N>'
p157
aS'<N>'
p158
aS'<N>'
p159
aS'<N>'
p160
aS'<N>'
p161
aS'<N>'
p162
aS'<N>'
p163
aS'<N>'
p164
aS'<N>'
p165
aS'<N>'
p166
aS'<N>'
p167
aS'<N>'
p168
aS'<N>'
p169
aS'<N>'
p170
aS'<N>'
p171
aS'<N>'
p172
aS'<N>'
p173
aS'<N>'
p174
aS'<N>'
p175
aS'<N>'
p176
aS'<N>'
p177
aS'<N>'
p178
aS'<N>'
p179
aS'<N>'
p180
aS'<N>'
p181
aS'<N>'
p182
aS'<N>'
p183
aS'<N>'
p184
aS'<N>'
p185
aS'<N>'
p186
aS'<N>'
p187
aS'<N>'
p188
aS'<N>'
p189
aS'<N>'
p190
aS'<N>'
p191
aS'<N>'
p192
aS'<N>'
p193
aS'<N>'
p194
aS'<N>'
p195
aS'<N>'
p196
aS'<N>'
p197
aS'<N>'
p198
aS'<N>'
p199
aS'<N>'
p200
aS'<N>'
p201
aS'<N>'
p202
aS'<N>'
p203
aS'<N>'
p204
aS'<N>'
p205
aS'<N>'
p206
aS'<N>'
p207
aS'<N>'
p208
aS'<N>'
p209
aS'<N>'
p210
aS'<N>'
p211
aS'<N>'
p212
aS'<N>'
p213
aS'<N>'
p214
aS'<N>'
p215
aS'<N>'
p216
aS'<N>'
p217
aS'<N>'
p218
aS'<N>'
p219
aS'<N>'
p220
aS'<N>'
p221
aS'<N>'
p222
aS'<N>'
p223
aS'<N>'
p224
aS'<N>'
p225
aS'<N>'
p226
aS'<N>'
p227
aS'<N>'
p228
aS'<N>'
p229
aS'<N>'
p230
aS'<N>'
p231
aS'<N>'
p232
aS'<N>'
p233
aS'<N>'
p234
aS'<N>'
p235
aS'<N>'
p236
aS'<N>'
p237
aS'<N>'
p238
aS'<N>'
p239
aS'<N>'
p240
aS'<N>'
p241
aS'<N>'
p242
aS'<N>'
p243
aS'<N>'
p244
aS'<N>'
p245
aS'<N>'
p246
aS'<N>'
p247
asS'child'
p248
(lp249
S'who'
p250
aS'then,'
p251
asS'hitch'
p252
(lp253
S'hiked'
p254
aS'hiked'
p255
asS'four'
p256
(lp257
S'<N>'
p258
aS'<N>'
p259
asS'hanging'
p260
(lp261
S'on'
p262
asS'saved'
p263
(lp264
S'me'
p265
asS'Until'
p266
(lp267
S'you'
p268
asS'Lately'
p269
(lp270
S'with'
p271
asS'up,'
p272
(lp273
S'<N>'
p274
aS'<N>'
p275
aS'then'
p276
aS'wake'
p277
aS'<N>'
p278
aS'<N>'
p279
aS'<N>'
p280
aS'<N>'
p281
aS'<N>'
p282
aS'<N>'
p283
asS'swam'
p284
(lp285
S'dirty'
p286
asS'under'
p287
(lp288
S'my'
p289
aS'every'
p290
asS'sorry'
p291
(lp292
S'tear'
p293
asS'pride'
p294
(lp295
S'and'
p296
asS'risk'
p297
(lp298
S'<N>'
p299
aS'<N>'
p300
aS'<N>'
p301
aS'<N>'
p302
aS'<N>'
p303
aS'<N>'
p304
aS'<N>'
p305
aS'<N>'
p306
aS'<N>'
p307
aS'<END>'
p308
asS'rise'
p309
(lp310
S'until'
p311
asS'tears,'
p312
(lp313
S'<N>'
p314
asS'every'
p315
(lp316
S'time'
p317
aS'time'
p318
aS'time'
p319
aS'time'
p320
aS'sky,'
p321
aS'border'
p322
aS'line,'
p323
aS'day,'
p324
aS'word,'
p325
aS'word'
p326
aS'word,'
p327
aS'piece'
p328
aS'open'
p329
asS'bringing'
p330
(lp331
S'me'
p332
aS'me'
p333
aS'you'
p334
aS'me'
p335
asS'regret.'
p336
(lp337
S'<N>'
p338
asS"we'll"
p339
(lp340
S'never'
p341
aS'never'
p342
asS'time!'
p343
(lp344
S'<N>'
p345
asS'Go'
p346
(lp347
S'to'
p348
aS'ahead,'
p349
aS'ahead'
p350
aS"'head"
p351
aS'on'
p352
asS'clothes'
p353
(lp354
S'you'
p355
asS'tired'
p356
(lp357
S'there'
p358
aS'<N>'
p359
aS'<N>'
p360
aS'of'
p361
aS'<N>'
p362
aS'of'
p363
aS'of'
p364
aS'<N>'
p365
asS'me,'
p366
(lp367
S'<N>'
p368
aS'<N>'
p369
aS'<N>'
p370
aS'<N>'
p371
aS'<N>'
p372
aS'I'
p373
ag373
ag373
ag373
aS'<N>'
p374
aS'<N>'
p375
asS'me.'
p376
(lp377
S'<N>'
p378
asS'me)'
p379
(lp380
S'<N>'
p381
aS'<N>'
p382
aS'<N>'
p383
aS'<N>'
p384
aS'<N>'
p385
aS'<N>'
p386
aS'<N>'
p387
aS'<N>'
p388
aS'<N>'
p389
aS'<N>'
p390
aS'<N>'
p391
aS'<N>'
p392
asS'scream,'
p393
(lp394
S'and'
p395
asS'even'
p396
(lp397
S'then'
p398
aS'when'
p399
asS'hide'
p400
(lp401
S'from'
p402
asS'hate'
p403
(lp404
S'to'
p405
aS'to'
p406
asS'She,'
p407
(lp408
S'she'
p409
aS'is'
p410
asS'poison'
p411
(lp412
S'over'
p413
asS'lights'
p414
(lp415
S'and'
p416
aS'<N>'
p417
aS'on'
p418
asS'haze'
p419
(lp420
S'<N>'
p421
asS'leave,'
p422
(lp423
S'<N>'
p424
asS'Put'
p425
(lp426
S'a'
p427
aS'myself'
p428
aS'myself'
p429
aS'your'
p430
asS'ever'
p431
(lp432
S'taint'
p433
aS'known'
p434
aS'known'
p435
aS'known'
p436
aS'did'
p437
aS'did'
p438
aS'did'
p439
aS'cross'
p440
aS'cross'
p441
aS'know'
p442
aS'<N>'
p443
aS'<N>'
p444
aS'leave'
p445
asS'told'
p446
(lp447
S'you,'
p448
aS'<N>'
p449
asS'Sometimes'
p450
(lp451
S'sitting'
p452
aS'the'
p453
ag373
aS'it'
p454
aS'it'
p455
asS'never'
p456
(lp457
S'felt'
p458
aS'want'
p459
aS'change'
p460
aS'felt'
p461
aS'want'
p462
aS'felt'
p463
aS'want'
p464
aS'say'
p465
aS'find'
p466
aS'felt'
p467
aS'do'
p468
aS'give'
p469
aS'match'
p470
aS'known'
p471
aS'before'
p472
aS'give'
p473
aS'match'
p474
aS'hurt'
p475
aS'look'
p476
aS'know'
p477
aS'try'
p478
aS'know'
p479
aS'try'
p480
aS'had'
p481
aS'had'
p482
aS'had'
p483
aS'had'
p484
aS'had'
p485
aS'had'
p486
aS'had'
p487
aS'had'
p488
aS'had'
p489
aS'had'
p490
aS'had'
p491
aS'had'
p492
aS'knew,'
p493
aS'knew.'
p494
aS'true,'
p495
aS'true,'
p496
aS'knew,'
p497
aS'knew,'
p498
aS'true,'
p499
aS'true,'
p500
aS'be'
p501
aS'have'
p502
aS'be'
p503
asS'here'
p504
(lp505
S'<N>'
p506
aS'<N>'
p507
aS'<N>'
p508
aS'<N>'
p509
ag308
aS'<N>'
p510
aS'<N>'
p511
aS'<N>'
p512
aS'for'
p513
aS'before'
p514
aS'before'
p515
aS'forever'
p516
aS'in'
p517
aS'in'
p518
asS'met'
p519
(lp520
S'<N>'
p521
aS'<N>'
p522
aS'<N>'
p523
aS'someone'
p524
ag379
aS'me)'
p525
aS'me)'
p526
aS'me)'
p527
aS'me)'
p528
aS'me)'
p529
aS'me)'
p530
aS'me)'
p531
aS'me)'
p532
aS'me)'
p533
aS'me)'
p534
aS'me)'
p535
asS'through.'
p536
(lp537
S'<N>'
p538
asS'dry'
p539
(lp540
S'your'
p541
asS'cried,'
p542
(lp543
S'<N>'
p544
aS'<N>'
p545
aS'<N>'
p546
aS'<N>'
p547
aS'<N>'
p548
asS'changed'
p549
(lp550
S'my'
p551
asS'light.'
p552
(lp553
S'<N>'
p554
asS'light,'
p555
(lp556
S'<N>'
p557
asS'less?'
p558
(lp559
S'<N>'
p560
asS'settled'
p561
(lp562
S'down'
p563
asS'crazier'
p564
(lp565
g373
asS'golden'
p566
(lp567
S'stories'
p568
aS'stories'
p569
aS'stories'
p570
aS'stories'
p571
aS'stories'
p572
asS'feelings'
p573
(lp574
S'away,'
p575
asS'brought'
p576
(lp577
S'me'
p578
asS'drowned'
p579
(lp580
S'and'
p581
asS'punching'
p582
(lp583
S'hard'
p584
asS'spoke'
p585
(lp586
S'yesterday,'
p587
asS'would'
p588
(lp589
S'it'
p590
aS'it'
p591
aS'it'
p592
aS'be'
p593
aS'never'
p594
aS'be'
p595
aS'choose'
p596
aS'always'
p597
aS'always'
p598
aS'have'
p599
aS'taste?'
p600
aS'you'
p601
asS'right?'
p602
(lp603
S'<N>'
p604
asS'arms'
p605
(lp606
S'<N>'
p607
aS'<N>'
p608
aS'<N>'
p609
aS'<N>'
p610
aS'<N>'
p611
aS'<N>'
p612
asS'call'
p613
(lp614
S'home'
p615
aS'that'
p616
aS'but'
p617
aS'but'
p618
asS'until'
p619
(lp620
g373
aS'this'
p621
aS'the'
p622
aS'the'
p623
aS'the'
p624
aS'the'
p625
asS'breathe'
p626
(lp627
S'<N>'
p628
aS'<N>'
p629
asS"'Though"
p630
(lp631
g373
asS"(You're"
p632
(lp633
S'gonna'
p634
aS'gonna'
p635
aS'gonna'
p636
aS'gonna'
p637
aS'gonna'
p638
aS'gonna'
p639
aS'gonna'
p640
aS'gonna'
p641
aS'gonna'
p642
aS'gonna'
p643
aS'gonna'
p644
aS'gonna'
p645
asg475
(lp646
S'<N>'
p647
aS'than'
p648
aS'me'
p649
aS'me,'
p650
aS'me,'
p651
asS'feeling,'
p652
(lp653
S'every'
p654
aS'every'
p655
asS'phone'
p656
(lp657
S'cause,'
p658
asS'warm'
p659
(lp660
S'embrace'
p661
asS'hole'
p662
(lp663
S'you'
p664
asS'hold'
p665
(lp666
S'me'
p667
aS'you'
p668
aS'you'
p669
aS'my'
p670
aS'in'
p671
aS'you'
p672
aS'in'
p673
aS'in'
p674
aS'back'
p675
aS'me'
p676
asS'Painting'
p677
(lp678
S'pictures'
p679
aS'pictures'
p680
aS'pictures'
p681
aS'pictures'
p682
aS'pictures'
p683
asS'must'
p684
(lp685
S'be'
p686
aS'be'
p687
asS'me'
p688
(lp689
S'<N>'
p690
aS'<N>'
p691
aS'<N>'
p692
aS'properly?'
p693
aS'<N>'
p694
aS'<N>'
p695
aS'more'
p696
aS'and'
p697
aS'the'
p698
aS'like'
p699
aS'each'
p700
aS'with'
p701
ag373
aS'with'
p702
ag373
aS'why'
p703
aS'with'
p704
ag373
aS'with'
p705
ag373
aS'with'
p706
ag373
aS'with'
p707
ag373
aS'with'
p708
ag373
aS'with'
p709
ag373
aS'crazy,'
p710
aS'lose'
p711
aS'into'
p712
aS'to'
p713
aS'to'
p714
aS'gone,'
p715
aS'closer,'
p716
aS'crazy'
p717
aS'spinning'
p718
aS'down'
p719
aS'into'
p720
aS'boy,'
p721
aS'first'
p722
aS'to'
p723
aS'first'
p724
aS'first'
p725
aS'first'
p726
aS'first'
p727
aS'first'
p728
aS'first'
p729
aS'first'
p730
aS'first'
p731
aS'yet.'
p732
aS'down'
p733
aS'weak'
p734
aS'knowing'
p735
aS'<N>'
p736
aS'knowing'
p737
aS'up,'
p738
aS'dead'
p739
aS'more'
p740
aS'<N>'
p741
aS'imagine'
p742
aS'imagine'
p743
aS'imagine'
p744
aS'imagine'
p745
aS'<N>'
p746
ag1
aS'up'
p747
aS'cry'
p748
aS'<N>'
p749
aS'want'
p750
aS'leave'
p751
aS'tumble'
p752
aS'<N>'
p753
aS'want'
p754
aS'leave'
p755
aS'tumble'
p756
aS'<N>'
p757
aS'down'
p758
aS'back'
p759
aS'before,'
p760
aS'once'
p761
aS'from'
p762
aS'before,'
p763
aS'once'
p764
aS'before,'
p765
aS'once'
p766
aS'up,'
p767
aS'up'
p768
aS'if'
p769
aS'even'
p770
aS'away'
p771
aS'away'
p772
aS'here'
p773
aS'home'
p774
aS'home'
p775
aS'now'
p776
aS'<N>'
p777
aS'now'
p778
aS'more,'
p779
aS'before.'
p780
aS'now'
p781
aS'closer'
p782
aS'in'
p783
aS'for'
p784
aS'in,'
p785
aS'and'
p786
aS'again,'
p787
aS'again,'
p788
aS'stay'
p789
aS'to'
p790
aS'again,'
p791
aS'again,'
p792
aS'again,'
p793
aS'again,'
p794
aS'<N>'
p795
aS'feel'
p796
aS'feel'
p797
aS'feel'
p798
aS'feel'
p799
aS'feel'
p800
aS'feel'
p801
aS'it'
p802
aS'it'
p803
aS'so'
p804
aS'be'
p805
ag427
aS'whichever'
p806
aS'be'
p807
ag427
aS"I've"
p808
aS"I've"
p809
aS"I've"
p810
aS"I've"
p811
aS'be'
p812
ag427
ag427
aS'out'
p813
aS'out'
p814
aS'out'
p815
aS'of'
p816
aS'thinking'
p817
aS'breathless'
p818
aS'in'
p819
aS'of'
p820
aS'thinking'
p821
aS'breathless'
p822
aS'back'
p823
aS'down,'
p824
aS'<N>'
p825
aS'together'
p826
aS'it'
p827
aS'it'
p828
aS'around.'
p829
aS'right'
p830
aS'more'
p831
aS'<N>'
p832
aS'<N>'
p833
aS'<N>'
p834
aS'<N>'
p835
aS'<N>'
p836
aS'<N>'
p837
aS'<N>'
p838
aS'<N>'
p839
aS'<N>'
p840
aS'no'
p841
aS'closely'
p842
aS'<N>'
p843
aS'if'
p844
aS'<N>'
p845
aS'<N>'
p846
aS'till'
p847
aS'if'
p848
aS'<N>'
p849
aS'off'
p850
aS'off'
p851
aS'<N>'
p852
aS'off'
p853
aS'<N>'
p854
aS'and'
p855
aS'<N>'
p856
aS'and'
p857
aS'<N>'
p858
aS'down'
p859
aS'<N>'
p860
aS'and'
p861
aS'<N>'
p862
aS'<N>'
p863
aS'<N>'
p864
aS'<N>'
p865
aS'from'
p866
asS'Crazy'
p867
(lp868
S'for'
p869
aS'for'
p870
asS'word'
p871
(lp872
S'was'
p873
aS'he'
p874
ag373
asS'room'
p875
(lp876
S'in'
p877
aS'in'
p878
aS'in'
p879
asS'Swept'
p880
(lp881
S'away,'
p882
asS'work'
p883
(lp884
S"don't"
p885
aS"don't"
p886
aS"don't"
p887
asS'ail\xc3\xa9s'
p888
(lp889
S'<N>'
p890
aS'<N>'
p891
aS'<N>'
p892
aS'<N>'
p893
aS'<N>'
p894
ag308
asS'waiting,'
p895
(lp896
S'<N>'
p897
asS'my'
p898
(lp899
S'heart'
p900
aS'sleeve?'
p901
aS'hardest'
p902
aS'hardest'
p903
aS'mind,'
p904
aS'place'
p905
aS'heart'
p906
aS'back'
p907
aS'place'
p908
aS'place'
p909
aS'head'
p910
aS'fault'
p911
aS'head.'
p912
aS'head'
p913
aS'blood'
p914
aS'favourite'
p915
aS'doorstep'
p916
aS'empty'
p917
aS'mind.'
p918
aS'heart'
p919
aS'mind.'
p920
aS'heel'
p921
aS'feet'
p922
aS'hometown'
p923
aS'hometown'
p924
aS'world'
p925
aS'world'
p926
aS'world'
p927
aS'hometown'
p928
aS'hometown'
p929
aS'world'
p930
aS'world'
p931
aS'world'
p932
aS'world'
p933
aS'world'
p934
aS'world'
p935
aS'love.'
p936
aS'love.'
p937
aS'mind'
p938
aS'love.'
p939
aS'love'
p940
aS'love'
p941
aS'mind,'
p942
aS'tongue'
p943
aS'feet'
p944
aS'pretendings'
p945
aS'heart'
p946
aS'name'
p947
aS'head'
p948
aS'heart'
p949
aS'head'
p950
aS'knees'
p951
aS'heart'
p952
aS'name'
p953
aS'head'
p954
aS'hand'
p955
aS'own'
p956
aS'head'
p957
aS'dear'
p958
aS'thing'
p959
aS'thing'
p960
aS'dear'
p961
aS'heart'
p962
aS'mouth'
p963
aS'memories'
p964
aS'age'
p965
aS'mind'
p966
aS'eyes'
p967
aS'heart'
p968
aS'mind'
p969
aS'heartbeat'
p970
aS'heart'
p971
aS'itch'
p972
aS'drum'
p973
aS'heart'
p974
aS'heart'
p975
aS'soul'
p976
aS'itch'
p977
aS'drum'
p978
aS'heart'
p979
aS'heart'
p980
aS'bed'
p981
aS'heart'
p982
aS'bed'
p983
aS'heart'
p984
aS'heart'
p985
aS'bones'
p986
aS'own'
p987
aS'bed'
p988
aS'heart'
p989
aS'hand'
p990
aS'eyes'
p991
aS'smile'
p992
aS'head,'
p993
aS'head,'
p994
aS'distance'
p995
aS'mind'
p996
aS'own'
p997
aS'own'
p998
aS'heart'
p999
aS'own'
p1000
aS'own'
p1001
aS'own'
p1002
aS'own'
p1003
aS'breath'
p1004
aS'own'
p1005
aS'days'
p1006
aS'sorrow'
p1007
aS'pain'
p1008
aS'whole'
p1009
aS'heart'
p1010
aS'skyscrapers'
p1011
aS'whole'
p1012
aS'heart'
p1013
aS'whole'
p1014
aS'heart'
p1015
aS'whole'
p1016
aS'heart'
p1017
ag294
aS'knees'
p1018
aS'sins,'
p1019
aS'heart'
p1020
aS'future'
p1021
aS'hands'
p1022
aS'hands'
p1023
aS'future'
p1024
aS'hands'
p1025
aS'hands'
p1026
aS'hands'
p1027
aS'hands'
p1028
aS'name'
p1029
aS'will'
p1030
aS'soul'
p1031
aS'will'
p1032
aS'soul'
p1033
aS'mind'
p1034
aS'doubts'
p1035
aS'name'
p1036
aS'heart'
p1037
aS'heart'
p1038
aS'heart'
p1039
aS'heart'
p1040
aS'heart'
p1041
aS'sorrow'
p1042
aS'heart'
p1043
aS'heart'
p1044
aS'heart'
p1045
aS'ear,'
p1046
aS'heart,'
p1047
aS'lips'
p1048
aS'knees'
p1049
aS'eyes'
p1050
aS'face'
p1051
aS'face'
p1052
aS'best,'
p1053
aS'tears?'
p1054
aS'love,'
p1055
aS'love.'
p1056
aS'love,'
p1057
aS'love.'
p1058
aS'love,'
p1059
aS'love'
p1060
aS'love.'
p1061
aS'own'
p1062
aS'own'
p1063
aS'own'
p1064
aS'head'
p1065
aS'heart'
p1066
aS'eyes'
p1067
aS'heart'
p1068
aS'lips'
p1069
aS'lips'
p1070
aS'lips'
p1071
aS'heart'
p1072
aS'number,'
p1073
aS'name'
p1074
aS'heart'
p1075
aS'hand'
p1076
asS'Standing'
p1077
(lp1078
S'there'
p1079
aS'on'
p1080
asS'give'
p1081
(lp1082
S'up'
p1083
ag272
aS'up,'
p1084
aS'up'
p1085
aS'up'
p1086
aS'up'
p1087
aS'in'
p1088
aS'in'
p1089
aS'in'
p1090
aS'up'
p1091
aS'up'
p1092
aS'up'
p1093
aS'it'
p1094
aS'me'
p1095
aS'me'
p1096
aS'me'
p1097
aS'me'
p1098
aS'to'
p1099
aS'it'
p1100
aS'you'
p1101
aS'you'
p1102
aS'you'
p1103
aS'me'
p1104
aS'up'
p1105
aS'up'
p1106
asS'honey'
p1107
(lp1108
S'<N>'
p1109
aS'<N>'
p1110
aS'<N>'
p1111
asg459
(lp1112
S'more'
p1113
aS'me'
p1114
aS'more'
p1115
aS'more'
p1116
aS'me'
p1117
aS'me'
p1118
aS'to'
p1119
aS'to'
p1120
aS'you'
p1121
aS'you'
p1122
aS'you'
p1123
aS'you'
p1124
aS'you'
p1125
aS'you'
p1126
aS'me'
p1127
aS'me'
p1128
aS'me'
p1129
aS'<N>'
p1130
asS'Lord'
p1131
(lp1132
S'have'
p1133
aS'have'
p1134
asS'keep'
p1135
(lp1136
S"chasin'"
p1137
aS"chasin'"
p1138
aS"chasin'"
p1139
aS"chasin'"
p1140
aS'on'
p1141
aS'on'
p1142
aS'on'
p1143
aS'me'
p1144
aS'me'
p1145
aS'up'
p1146
aS'up'
p1147
aS'walking'
p1148
asS'rescue'
p1149
(lp1150
S'you'
p1151
aS'you'
p1152
aS'you'
p1153
asg829
(lp1154
S'<N>'
p1155
asS'around,'
p1156
(lp1157
S'<N>'
p1158
asS'end'
p1159
(lp1160
S'and'
p1161
aS'up'
p1162
aS'starts'
p1163
aS'starts'
p1164
aS'starts'
p1165
aS'starts.'
p1166
aS'<N>'
p1167
aS'<N>'
p1168
asS'turn'
p1169
(lp1170
S'it'
p1171
aS'me'
p1172
aS'into.'
p1173
aS'around'
p1174
aS'to'
p1175
aS'up'
p1176
aS'up'
p1177
asS'how'
p1178
(lp1179
S'<N>'
p1180
aS'you'
p1181
aS'you'
p1182
aS'my'
p1183
aS'to'
p1184
aS'the'
p1185
aS'you'
p1186
aS'you'
p1187
aS'you'
p1188
ag373
ag373
ag373
aS'it'
p1189
ag373
aS'the'
p1190
aS'bittersweet'
p1191
aS'can'
p1192
asS'win.'
p1193
(lp1194
S'<N>'
p1195
aS'<N>'
p1196
asS'win,'
p1197
(lp1198
S'always'
p1199
aS'always'
p1200
asS'answer'
p1201
(lp1202
S'to'
p1203
asg905
(lp1204
S'<N>'
p1205
aS'<N>'
p1206
aS'should'
p1207
aS'<N>'
p1208
aS'<N>'
p1209
aS'where'
p1210
asS'A'
p1211
(lp1212
S'jaw'
p1213
aS'double'
p1214
aS'thousand'
p1215
asS'fever'
p1216
(lp1217
S'pitch,'
p1218
aS'pitch'
p1219
asS'after'
p1220
(lp1221
S'one,'
p1222
aS'one,'
p1223
aS'one,'
p1224
asS'Will'
p1225
(lp1226
S'he...'
p1227
aS'he'
p1228
ag373
asS'wrong'
p1229
(lp1230
S'<N>'
p1231
aS'<N>'
p1232
aS'<N>'
p1233
asS'lay'
p1234
(lp1235
S'down'
p1236
aS'down'
p1237
aS'down'
p1238
aS'yourself'
p1239
aS'yourself'
p1240
aS'yourself'
p1241
aS'your'
p1242
aS'with'
p1243
aS'down'
p1244
aS'down'
p1245
asS"they're"
p1246
(lp1247
S'enough'
p1248
aS'strong'
p1249
asS'All'
p1250
(lp1251
S'of'
p1252
aS'the'
p1253
aS'the'
p1254
aS'that'
p1255
aS'that'
p1256
asS'Hoping'
p1257
(lp1258
S"you'll"
p1259
asS'Another'
p1260
(lp1261
S'shot'
p1262
asS'wind'
p1263
(lp1264
S'<N>'
p1265
asS'down?'
p1266
(lp1267
S'<N>'
p1268
asS'over'
p1269
(lp1270
S'<N>'
p1271
aS'now'
p1272
aS'me?'
p1273
aS'<N>'
p1274
aS'<N>'
p1275
asS'satisfied'
p1276
(lp1277
S'<N>'
p1278
asS'down,'
p1279
(lp1280
S'<N>'
p1281
aS'<N>'
p1282
aS'whoa'
p1283
asS'down.'
p1284
(lp1285
S'<N>'
p1286
aS'<N>'
p1287
asS'down!'
p1288
(lp1289
S'<N>'
p1290
asS'before'
p1291
(lp1292
S'<N>'
p1293
aS'<N>'
p1294
aS'<N>'
p1295
aS'<N>'
p1296
aS'<N>'
p1297
aS'explosion,'
p1298
aS'<N>'
p1299
aS'<N>'
p1300
ag373
aS'that,'
p1301
ag373
ag373
asS'<START>'
p1302
(lp1303
S'Wait,'
p1304
aS"I've"
p1305
aS'You'
p1306
aS'Found'
p1307
aS'Daydreamer'
p1308
aS'So'
p1309
aS"I've"
p1310
aS'When'
p1311
aS'Go'
p1312
aS'Right'
p1313
aS'You'
p1314
aS'Sometimes'
p1315
ag677
aS'Who'
p1316
aS'When'
p1317
aS'Hold'
p1318
aS'When'
p1319
aS'Someday'
p1320
aS'This'
p1321
ag373
aS'Hold'
p1322
aS'Never'
p1323
aS'[Verse'
p1324
aS'Picture'
p1325
aS"You've"
p1326
aS"There's"
p1327
aS'Owwwwh'
p1328
ag373
ag373
aS"Didn't"
p1329
aS'Close'
p1330
aS'Turn'
p1331
aS'Last'
p1332
aS'In'
p1333
aS'This'
p1334
asg251
(lp1335
S'but'
p1336
asS'screaming'
p1337
(lp1338
S'out'
p1339
aS'out'
p1340
aS'out'
p1341
asS'fix'
p1342
(lp1343
S'<N>'
p1344
aS'<N>'
p1345
asS'better'
p1346
(lp1347
S'when'
p1348
aS'when'
p1349
aS'without'
p1350
aS'to'
p1351
aS'to'
p1352
aS'to'
p1353
aS'to'
p1354
aS'to'
p1355
aS'to'
p1356
aS'than'
p1357
aS'<N>'
p1358
aS'than'
p1359
asS'then?'
p1360
(lp1361
S"Don't"
p1362
asS'persist'
p1363
(lp1364
S'with'
p1365
asg276
(lp1366
S'leave'
p1367
aS'my'
p1368
aS'you'
p1369
aS'<N>'
p1370
aS'what'
p1371
aS'what'
p1372
aS'what'
p1373
aS'what'
p1374
aS'burn'
p1375
aS'what'
p1376
aS'what'
p1377
aS'what'
p1378
aS'what'
p1379
aS'what'
p1380
aS'what'
p1381
ag373
aS'<N>'
p1382
aS'<N>'
p1383
asS'them'
p1384
(lp1385
S'<N>'
p1386
aS'turn'
p1387
aS'away,'
p1388
aS'away'
p1389
aS'<N>'
p1390
asS'biding'
p1391
(lp1392
S'your'
p1393
aS'your'
p1394
aS'your'
p1395
asS'history,'
p1396
(lp1397
S'<N>'
p1398
asS'collide'
p1399
(lp1400
S'<N>'
p1401
aS'and'
p1402
asS'break'
p1403
(lp1404
S'and'
p1405
aS'and'
p1406
aS'and'
p1407
aS'and'
p1408
asS'they'
p1409
(lp1410
S'smeared'
p1411
aS"don't"
p1412
aS'leave'
p1413
aS'leave'
p1414
asS'but,'
p1415
(lp1416
S'<N>'
p1417
aS'in'
p1418
asS'shadows'
p1419
(lp1420
S'and'
p1421
aS'<N>'
p1422
asg1320
(lp1423
S"I'll"
p1424
asS'Four'
p1425
(lp1426
S'cold'
p1427
aS'cold'
p1428
aS'cold'
p1429
aS'cold'
p1430
asg700
(lp1431
S'and'
p1432
aS'time'
p1433
aS'other'
p1434
aS'other,'
p1435
aS'other'
p1436
aS'other,'
p1437
aS'time,'
p1438
asS'went'
p1439
(lp1440
S'wrong,'
p1441
aS'<N>'
p1442
aS'on'
p1443
asS'side'
p1444
(lp1445
S'of'
p1446
aS'to'
p1447
aS'to'
p1448
asS'mean'
p1449
(lp1450
S'that'
p1451
aS'that'
p1452
aS'that'
p1453
aS'that'
p1454
asS"we'd"
p1455
(lp1456
S'made,'
p1457
asS'combining'
p1458
(lp1459
S'<N>'
p1460
asg1166
(lp1461
g308
asS'forty'
p1462
(lp1463
g256
aS'four'
p1464
asg324
(lp1465
S'<N>'
p1466
asS'Satra,'
p1467
(lp1468
S'Janet,'
p1469
asS'got'
p1470
(lp1471
S'<N>'
p1472
aS'<N>'
p1473
aS'<N>'
p1474
aS'<N>'
p1475
aS'it'
p1476
aS'your'
p1477
aS'your'
p1478
aS'your'
p1479
aS'too'
p1480
asg1318
(lp1481
S'my'
p1482
aS'me'
p1483
aS'your'
p1484
asS'turning'
p1485
(lp1486
S'tables'
p1487
aS'tables'
p1488
aS'tables'
p1489
aS'tables'
p1490
aS'tables'
p1491
aS'tables'
p1492
aS'tables'
p1493
asS'given'
p1494
(lp1495
S'up'
p1496
asS'free'
p1497
(lp1498
S'<N>'
p1499
aS'<N>'
p1500
aS'<N>'
p1501
aS'again'
p1502
asg1324
(lp1503
S'1:]'
p1504
aS'2:]'
p1505
asS'created'
p1506
(lp1507
S'what'
p1508
asg1163
(lp1509
S'<N>'
p1510
aS'<N>'
p1511
aS'<N>'
p1512
asS'days'
p1513
(lp1514
S'on'
p1515
aS'when'
p1516
aS'<N>'
p1517
aS'<N>'
p1518
aS'are'
p1519
asS'stranger,'
p1520
(lp1521
S'<N>'
p1522
asS'loud'
p1523
(lp1524
S'your'
p1525
asS'already'
p1526
(lp1527
S'over'
p1528
asS'Waits'
p1529
(lp1530
S'for'
p1531
asS'Please'
p1532
(lp1533
S'wear'
p1534
aS'wipe'
p1535
aS'forgive'
p1536
aS'spread'
p1537
aS'spread'
p1538
asg718
(lp1539
S'closer'
p1540
asS'floors'
p1541
(lp1542
S'and'
p1543
asS'thick'
p1544
(lp1545
S'and'
p1546
asS'top'
p1547
(lp1548
S'<N>'
p1549
aS'<N>'
p1550
aS'of'
p1551
aS'of'
p1552
asS'scene,'
p1553
(lp1554
S'<N>'
p1555
asS'too'
p1556
(lp1557
S'baby,'
p1558
aS'<N>'
p1559
aS'crazy'
p1560
aS'tired.'
p1561
aS'long'
p1562
aS'long'
p1563
aS'long'
p1564
aS'much'
p1565
aS'much'
p1566
aS'good'
p1567
aS'weak,'
p1568
aS'<N>'
p1569
aS'<N>'
p1570
aS'<N>'
p1571
aS'used'
p1572
asS'easy,'
p1573
(lp1574
S'giving'
p1575
aS'giving'
p1576
aS'giving'
p1577
aS'giving'
p1578
aS'giving'
p1579
aS'giving'
p1580
asS'enough,'
p1581
(lp1582
S"you're"
p1583
asS'took'
p1584
(lp1585
S'my'
p1586
aS'my'
p1587
ag427
asS'floor.'
p1588
(lp1589
S'<N>'
p1590
asg1304
(lp1591
S'do'
p1592
asS'begins'
p1593
(lp1594
S'to'
p1595
asS'mercy'
p1596
(lp1597
S'on'
p1598
aS'on'
p1599
asS'showed'
p1600
(lp1601
S'up'
p1602
asS'final'
p1603
(lp1604
S'kiss'
p1605
aS'hours'
p1606
aS'hours'
p1607
asS'shower'
p1608
(lp1609
S'me'
p1610
aS'me'
p1611
aS'me'
p1612
aS'me'
p1613
asS'See'
p1614
(lp1615
g373
aS'if'
p1616
aS'if'
p1617
aS'if'
p1618
aS'if'
p1619
aS'when'
p1620
aS'how'
p1621
asS'feeling'
p1622
(lp1623
S'that'
p1624
aS'up'
p1625
aS'heavy'
p1626
aS'<N>'
p1627
aS'<N>'
p1628
asS'sees'
p1629
(lp1630
S'you'
p1631
aS'and'
p1632
aS'and'
p1633
aS'and'
p1634
asS'shy?'
p1635
(lp1636
S'<N>'
p1637
asg1329
(lp1638
g373
ag373
asS'mind'
p1639
(lp1640
S'up'
p1641
aS'where'
p1642
aS'<N>'
p1643
aS'<N>'
p1644
aS'<N>'
p1645
aS'<N>'
p1646
aS'said'
p1647
aS'<N>'
p1648
aS'to'
p1649
aS'<N>'
p1650
aS'<N>'
p1651
asS'mine'
p1652
(lp1653
S'<N>'
p1654
aS'<N>'
p1655
aS'sure'
p1656
asS'seen'
p1657
(lp1658
S'nothing'
p1659
aS'your'
p1660
aS'the'
p1661
asS'ohhhh'
p1662
(lp1663
g308
asS'me?'
p1664
(lp1665
S'<N>'
p1666
aS'<N>'
p1667
aS'<N>'
p1668
aS'<N>'
p1669
asS'Then'
p1670
(lp1671
S"you'd"
p1672
aS"you'd"
p1673
ag1629
aS'choke'
p1674
aS'our'
p1675
aS'our'
p1676
aS'our'
p1677
aS'our'
p1678
ag373
asS'do.'
p1679
(lp1680
S'<N>'
p1681
asS'do,'
p1682
(lp1683
S'<N>'
p1684
aS'but'
p1685
aS'but'
p1686
aS'but'
p1687
aS'but'
p1688
aS'but'
p1689
aS'the'
p1690
aS'<N>'
p1691
asS'drunk,'
p1692
(lp1693
S'<N>'
p1694
asS'breathe,'
p1695
(lp1696
S'<N>'
p1697
asS'They'
p1698
(lp1699
S'melt'
p1700
aS'make'
p1701
aS'keep'
p1702
aS'keep'
p1703
aS'were'
p1704
aS'were'
p1705
aS'are'
p1706
aS"don't"
p1707
aS"can't"
p1708
aS"won't"
p1709
aS"don't"
p1710
aS"don't"
p1711
aS"won't"
p1712
asS'circles'
p1713
(lp1714
S'<N>'
p1715
asS'blue'
p1716
(lp1717
S'uninvited'
p1718
aS'uninvited'
p1719
asS'though'
p1720
(lp1721
S"I'm"
p1722
aS'your'
p1723
ag373
asS'[Chorus'
p1724
(lp1725
S'x2]'
p1726
asS'mouth'
p1727
(lp1728
S'finally'
p1729
aS'the'
p1730
aS'with'
p1731
asS'I\xe2\x80\x99m'
p1732
(lp1733
S'stolen'
p1734
asS'real,'
p1735
(lp1736
S'<N>'
p1737
asS'Scratch'
p1738
(lp1739
S'my'
p1740
asS'door.'
p1741
(lp1742
S'<N>'
p1743
asS'Bound'
p1744
(lp1745
S'by'
p1746
asS'[repeats]'
p1747
(lp1748
S'<N>'
p1749
asS'thunder'
p1750
(lp1751
S'calls'
p1752
asS'came'
p1753
(lp1754
S'true.'
p1755
aS'in,'
p1756
aS'to'
p1757
asS'bomb'
p1758
(lp1759
S'before'
p1760
asS'earth'
p1761
(lp1762
S'move'
p1763
asg1046
(lp1764
S'<N>'
p1765
asS'Strips'
p1766
(lp1767
S'me'
p1768
asS'resemblance'
p1769
(lp1770
S'to'
p1771
asS'Reaching'
p1772
(lp1773
S'for'
p1774
ag427
ag427
asS'touched'
p1775
(lp1776
S'your'
p1777
aS'your'
p1778
aS'your'
p1779
asS'goodbye,'
p1780
(lp1781
S'<N>'
p1782
aS'<N>'
p1783
asg1592
(lp1784
S'you'
p1785
aS'to'
p1786
aS'<N>'
p1787
ag619
aS'<N>'
p1788
aS'know'
p1789
aS'for'
p1790
aS'do'
p1791
aS'do'
p1792
aS'do'
p1793
aS'oh'
p1794
aS'you'
p1795
aS'<N>'
p1796
aS'you'
p1797
aS'<N>'
p1798
aS'<N>'
p1799
aS'<N>'
p1800
ag308
aS'<N>'
p1801
aS'it'
p1802
aS'it'
p1803
aS'it'
p1804
aS'it'
p1805
aS'it'
p1806
aS'it'
p1807
aS'it'
p1808
aS'it'
p1809
aS'it'
p1810
aS'it'
p1811
aS'everything'
p1812
aS'everything'
p1813
aS'everything'
p1814
aS'without,'
p1815
aS'without,'
p1816
aS'without,'
p1817
aS'<N>'
p1818
aS'it'
p1819
aS'is'
p1820
aS"what's"
p1821
asS'di'
p1822
(lp1823
S'di'
p1824
aS'da'
p1825
asS'Turns'
p1826
(lp1827
S'me'
p1828
asS'watch'
p1829
(lp1830
S'them'
p1831
asS'da'
p1832
(lp1833
g1822
aS'da'
p1834
aS'da'
p1835
aS'da'
p1836
aS'do'
p1837
asS'Leave'
p1838
(lp1839
S'<N>'
p1840
asS'haunted'
p1841
(lp1842
S'skies'
p1843
asS'selfish,'
p1844
(lp1845
g373
ag373
asS'despite'
p1846
(lp1847
S'the'
p1848
asS'ohhhh!'
p1849
(lp1850
S'<N>'
p1851
asg321
(lp1852
S'<N>'
p1853
asS'Over'
p1854
(lp1855
S'every'
p1856
asS'bad'
p1857
(lp1858
S'it'
p1859
asS'Dropped'
p1860
(lp1861
S'you'
p1862
asS'steal'
p1863
(lp1864
S'my'
p1865
asg1173
(lp1866
S'<N>'
p1867
asS'blew'
p1868
(lp1869
S'me'
p1870
asS'new.'
p1871
(lp1872
S'<N>'
p1873
asS'fair'
p1874
(lp1875
S'<N>'
p1876
asS'goodnight'
p1877
(lp1878
S'<N>'
p1879
asS'fail'
p1880
(lp1881
S'declined?'
p1882
asS'best'
p1883
(lp1884
S'for'
p1885
aS'for'
p1886
aS'tidy'
p1887
aS'tidy'
p1888
aS'tidy'
p1889
aS'for'
p1890
aS'for'
p1891
aS'for'
p1892
aS'for'
p1893
asS'subject'
p1894
(lp1895
S'of'
p1896
asS'said'
p1897
(lp1898
S'to'
p1899
aS"I'm"
p1900
aS"I'm"
p1901
aS"I'm"
p1902
aS'your'
p1903
aS'<N>'
p1904
aS'to'
p1905
ag373
aS'it,'
p1906
aS'it,'
p1907
aS'<N>'
p1908
aS'<N>'
p1909
aS'<N>'
p1910
asS'Somebody'
p1911
(lp1912
S'smeared'
p1913
asS'onto'
p1914
(lp1915
S'my'
p1916
asS'face,'
p1917
(lp1918
S'the'
p1919
aS'<N>'
p1920
aS'<N>'
p1921
aS'<N>'
p1922
aS'<N>'
p1923
asS'away'
p1924
(lp1925
S'with'
p1926
aS'with'
p1927
aS'to'
p1928
aS'<N>'
p1929
aS'<N>'
p1930
aS'<N>'
p1931
aS'<N>'
p1932
aS'<N>'
p1933
aS'<N>'
p1934
ag308
ag373
ag373
ag373
aS'<N>'
p1935
asS"there's"
p1936
(lp1937
S'nothing'
p1938
aS'many'
p1939
aS'many'
p1940
aS'many'
p1941
aS'many'
p1942
aS'many'
p1943
aS'air'
p1944
ag427
ag427
asS'we'
p1945
(lp1946
S"ain't"
p1947
aS'are'
p1948
aS"ain't"
p1949
aS"ain't"
p1950
aS'are'
p1951
aS'met,'
p1952
aS'do'
p1953
aS'do,'
p1954
aS'do,'
p1955
aS'do'
p1956
aS'argue'
p1957
aS"wouldn't,"
p1958
aS'do,'
p1959
aS'do,'
p1960
aS'do,'
p1961
aS'do'
p1962
aS'do'
p1963
aS'know'
p1964
aS'know'
p1965
aS'know'
p1966
aS'know'
p1967
aS'were'
p1968
aS'used'
p1969
aS'were'
p1970
ag585
aS'had'
p1971
aS'had'
p1972
aS'almost'
p1973
aS'almost'
p1974
aS'creep'
p1975
aS'fell,'
p1976
aS'fell,'
p1977
aS'need.'
p1978
aS'start'
p1979
asg734
(lp1980
S'for'
p1981
asS'spin.'
p1982
(lp1983
S'<N>'
p1984
asg1534
(lp1985
S'the'
p1986
asS'unfold'
p1987
(lp1988
S'<N>'
p1989
asS'Yours'
p1990
(lp1991
g1556
asS'accident'
p1992
(lp1993
S'<N>'
p1994
asS'coy'
p1995
(lp1996
S'<N>'
p1997
asg911
(lp1998
S'<N>'
p1999
asS'against'
p2000
(lp2001
S'the'
p2002
aS'the'
p2003
aS'the'
p2004
aS'us,'
p2005
aS'us,'
p2006
aS'us,'
p2007
aS'us,'
p2008
aS'my'
p2009
aS'my'
p2010
asS'games'
p2011
(lp2012
S'you'
p2013
aS'you'
p2014
asg1957
(lp2015
S'<N>'
p2016
asS'Closer'
p2017
(lp2018
S'and'
p2019
asS'loaded'
p2020
(lp2021
S'up'
p2022
aS'up'
p2023
asS'trust'
p2024
(lp2025
S'me'
p2026
aS'me'
p2027
aS'me'
p2028
aS'me'
p2029
asS'now,'
p2030
(lp2031
S'time'
p2032
asS'now.'
p2033
(lp2034
S'<N>'
p2035
aS'<N>'
p2036
aS'<N>'
p2037
aS'<N>'
p2038
aS'<N>'
p2039
aS'<N>'
p2040
aS'<N>'
p2041
aS'<N>'
p2042
aS'<N>'
p2043
aS'<N>'
p2044
ag308
aS'<N>'
p2045
asS'Sitting'
p2046
(lp2047
S'on'
p2048
asS'Oooohhhh'
p2049
(lp2050
S'<N>'
p2051
aS'<N>'
p2052
asS'been'
p2053
(lp2054
S'there'
p2055
aS'waiting'
p2056
ag688
ag1360
aS'there'
p2057
aS'there'
p2058
aS'walking'
p2059
aS'that'
p2060
aS'wasted'
p2061
aS'that'
p2062
aS'that'
p2063
aS'that'
p2064
aS'for'
p2065
aS'for'
p2066
aS'<N>'
p2067
aS'for'
p2068
aS'for'
p2069
aS'gone'
p2070
aS'for'
p2071
aS'<N>'
p2072
aS'for'
p2073
aS'for'
p2074
aS'for'
p2075
aS'<N>'
p2076
aS'for'
p2077
aS'for'
p2078
aS'for'
p2079
aS'<N>'
p2080
aS'for'
p2081
aS'<N>'
p2082
aS'for'
p2083
aS'<N>'
p2084
aS'for'
p2085
aS'on'
p2086
aS'here'
p2087
aS'on'
p2088
aS'here'
p2089
aS'missing'
p2090
aS'telling'
p2091
aS'in'
p2092
asS'Skyfall'
p2093
(lp2094
S'is'
p2095
asS'deep)'
p2096
(lp2097
S'<N>'
p2098
aS'<N>'
p2099
aS'<N>'
p2100
aS'<N>'
p2101
aS'<N>'
p2102
aS'<N>'
p2103
aS'<N>'
p2104
aS'<N>'
p2105
aS'<N>'
p2106
aS'<N>'
p2107
aS'<N>'
p2108
asS'much'
p2109
(lp2110
S'to'
p2111
aS'to'
p2112
aS'time,'
p2113
aS'in'
p2114
aS'in'
p2115
aS'as'
p2116
asS"You've"
p2117
(lp2118
S'burnt'
p2119
aS'been'
p2120
aS'been'
p2121
ag1494
asS'threw'
p2122
(lp2123
S'us'
p2124
aS'us'
p2125
asS'life'
p2126
(lp2127
S'<N>'
p2128
aS'<N>'
p2129
ag308
aS'<N>'
p2130
aS'hiding'
p2131
aS'hiding'
p2132
aS'hiding'
p2133
aS'hiding'
p2134
asg1035
(lp2135
S'go'
p2136
asS'catch'
p2137
(lp2138
S'<N>'
p2139
asS"Can't"
p2140
(lp2141
S'say'
p2142
aS'have'
p2143
aS'have'
p2144
asS'exception'
p2145
(lp2146
S'<N>'
p2147
asS'save'
p2148
(lp2149
S'the'
p2150
aS'the'
p2151
aS'me'
p2152
asS'[shit]'
p2153
(lp2154
S'bare'
p2155
asS'air'
p2156
(lp2157
S'is'
p2158
aS'made'
p2159
asS'near'
p2160
(lp2161
S'<N>'
p2162
asS'known)'
p2163
(lp2164
S'<N>'
p2165
asS'[Chorus]'
p2166
(lp2167
S'<N>'
p2168
aS'<N>'
p2169
ag308
asS'voice'
p2170
(lp2171
S'today'
p2172
asS'over.'
p2173
(lp2174
S'<N>'
p2175
aS'<N>'
p2176
asS'over,'
p2177
(lp2178
S'<N>'
p2179
asS'played'
p2180
(lp2181
S'it,'
p2182
aS'it,'
p2183
aS'it,'
p2184
aS'it'
p2185
aS'it'
p2186
aS'it'
p2187
aS'it'
p2188
aS'it'
p2189
asS'is'
p2190
(lp2191
S'it'
p2192
aS'love'
p2193
ag427
aS'<N>'
p2194
aS'so'
p2195
aS'blowing'
p2196
aS'on'
p2197
aS'no'
p2198
aS'the'
p2199
aS'no'
p2200
ag1229
aS'wrong'
p2201
aS'done'
p2202
aS'how'
p2203
aS'done'
p2204
aS'done'
p2205
aS'done'
p2206
ag427
aS'that'
p2207
aS'half'
p2208
aS'better'
p2209
aS'better'
p2210
aS'everything'
p2211
aS'it'
p2212
aS'for'
p2213
aS'on'
p2214
aS'lost'
p2215
aS'found'
p2216
aS'came'
p2217
aS'the'
p2218
aS'the'
p2219
aS'where'
p2220
asS'it'
p2221
(lp2222
S"don't"
p2223
ag315
aS"ain't"
p2224
aS"don't"
p2225
aS'hard'
p2226
ag1269
aS'was'
p2227
aS'leads'
p2228
aS'be'
p2229
aS'there'
p2230
aS'leads'
p2231
aS'<N>'
p2232
aS'leads'
p2233
aS'be'
p2234
aS'there'
p2235
aS'leads'
p2236
aS'be'
p2237
aS'there'
p2238
aS'round'
p2239
aS'look'
p2240
aS'in'
p2241
aS'in'
p2242
aS'<N>'
p2243
aS'from'
p2244
aS'on'
p2245
aS'with'
p2246
aS'as'
p2247
aS'comes,'
p2248
aS'out,'
p2249
aS'all'
p2250
aS'as'
p2251
aS'comes,'
p2252
aS'as'
p2253
aS'comes,'
p2254
aS'back'
p2255
aS'back'
p2256
aS'with'
p2257
aS'cuts'
p2258
aS'hurts'
p2259
aS'hurts'
p2260
aS'hurts'
p2261
aS'hurts'
p2262
aS'seems'
p2263
aS'will'
p2264
aS'did'
p2265
aS'<N>'
p2266
aS'<N>'
p2267
aS'honey'
p2268
aS'honey'
p2269
aS'baby'
p2270
aS'baby'
p2271
aS'on'
p2272
aS'on'
p2273
aS'on'
p2274
aS'on'
p2275
aS'up'
p2276
aS'on'
p2277
aS'on'
p2278
aS'on'
p2279
aS'on'
p2280
aS'on'
p2281
aS'on'
p2282
aS"hadn't"
p2283
aS"hadn't"
p2284
aS"hadn't"
p2285
aS"hadn't"
p2286
aS"hadn't"
p2287
aS"hadn't"
p2288
aS'better'
p2289
aS"hadn't"
p2290
aS"hadn't"
p2291
aS"hadn't"
p2292
aS"hadn't"
p2293
aS"hadn't"
p2294
aS"hadn't"
p2295
aS"hadn't"
p2296
aS"hadn't"
p2297
aS"hadn't"
p2298
aS"hadn't"
p2299
aS"hadn't"
p2300
aS"hadn't"
p2301
aS"hadn't"
p2302
aS"hadn't"
p2303
aS'anymore.'
p2304
aS'happens'
p2305
aS'happens'
p2306
aS'all,'
p2307
aS'feels'
p2308
aS'all,'
p2309
aS"ain't"
p2310
aS"ain't"
p2311
aS"ain't"
p2312
aS"ain't"
p2313
aS"ain't"
p2314
aS"ain't"
p2315
aS'all'
p2316
aS'all'
p2317
aS'all'
p2318
aS'all'
p2319
aS'all'
p2320
aS'all'
p2321
aS'all'
p2322
aS'all,'
p2323
aS'all'
p2324
aS'all'
p2325
aS'to'
p2326
aS'all'
p2327
aS'<N>'
p2328
aS'<N>'
p2329
aS'<N>'
p2330
aS'to'
p2331
aS'all,'
p2332
aS'she'
p2333
aS'(rumour)'
p2334
aS"I'm"
p2335
aS'(rumour)'
p2336
aS"don't"
p2337
aS'(rumour)'
p2338
aS"he's"
p2339
aS'fall,'
p2340
aS'fell'
p2341
aS'<N>'
p2342
aS'pour'
p2343
aS'burned'
p2344
ag1337
aS'pour'
p2345
aS'burned'
p2346
aS'screaming'
p2347
aS'pour'
p2348
aS'burned'
p2349
aS'screaming'
p2350
aS'burn,'
p2351
aS'burn'
p2352
aS'burn'
p2353
aS"isn't"
p2354
aS'lasts'
p2355
aS'hurts'
p2356
aS'lasts'
p2357
aS'hurts'
p2358
aS"isn't"
p2359
aS'lasts'
p2360
aS'hurts'
p2361
aS'lasts'
p2362
aS'hurts'
p2363
aS'lasts'
p2364
aS'hurts'
p2365
aS'lasts'
p2366
aS'hurts'
p2367
aS'all,'
p2368
ag602
aS'all'
p2369
aS'all'
p2370
aS'all'
p2371
aS'over?'
p2372
aS'all'
p2373
aS'all'
p2374
aS'all'
p2375
aS'down'
p2376
aS'home,'
p2377
aS'all'
p2378
aS'all'
p2379
aS'all'
p2380
aS'all'
p2381
aS'all'
p2382
aS'won\xe2\x80\x99t'
p2383
aS'won\xe2\x80\x99t'
p2384
aS'crumbles'
p2385
aS'all'
p2386
aS'crumbles'
p2387
aS'all'
p2388
aS'crumbles'
p2389
aS'all'
p2390
aS'crumbles'
p2391
aS'all'
p2392
aS'crumbles'
p2393
aS'all'
p2394
aS'crumbles'
p2395
aS'all'
p2396
asg2372
(lp2397
S'<N>'
p2398
asS'pavements'
p2399
(lp2400
S'<N>'
p2401
aS'<N>'
p2402
aS'<N>'
p2403
aS'<N>'
p2404
aS'<N>'
p2405
asS'in'
p2406
(lp2407
S'the'
p2408
aS'the'
p2409
ag1713
aS'my'
p2410
aS'your'
p2411
aS'the'
p2412
aS'the'
p2413
aS'<N>'
p2414
aS'my'
p2415
aS'the'
p2416
aS'the'
p2417
aS'the'
p2418
aS'short'
p2419
aS'the'
p2420
aS'your'
p2421
aS'my'
p2422
aS'fact'
p2423
aS'the'
p2424
aS'to'
p2425
aS'love'
p2426
aS'love'
p2427
aS'love'
p2428
aS'love'
p2429
aS'love'
p2430
aS'love'
p2431
aS'<N>'
p2432
aS'fact'
p2433
aS'this'
p2434
aS'<N>'
p2435
aS'fact'
p2436
aS'your'
p2437
aS'my'
p2438
aS'my'
p2439
aS'my'
p2440
aS'my'
p2441
aS'place'
p2442
aS'the'
p2443
aS'the'
p2444
aS'my'
p2445
aS'my'
p2446
aS'the'
p2447
aS'your'
p2448
aS'you,'
p2449
aS'you,'
p2450
aS'<N>'
p2451
aS'the'
p2452
aS'time'
p2453
aS'your'
p2454
aS'time'
p2455
aS'your'
p2456
aS'your'
p2457
aS'my'
p2458
aS'my'
p2459
aS'the'
p2460
aS'the'
p2461
aS'the'
p2462
aS'the'
p2463
aS'the'
p2464
aS'the'
p2465
aS'the'
p2466
aS'the'
p2467
aS'the'
p2468
aS'the'
p2469
aS'kind'
p2470
aS'the'
p2471
aS'the'
p2472
aS'the'
p2473
aS'the'
p2474
aS'the'
p2475
aS'the'
p2476
aS'the'
p2477
aS'the'
p2478
aS'the'
p2479
aS'my'
p2480
aS'your'
p2481
aS'love'
p2482
aS'love'
p2483
aS'love'
p2484
aS'love'
p2485
aS'love'
p2486
aS'love'
p2487
aS'the'
p2488
aS'these'
p2489
aS'the'
p2490
aS'these'
p2491
aS'town'
p2492
aS'the'
p2493
aS'my'
p2494
asS'said,'
p2495
(lp2496
S'<N>'
p2497
aS'<N>'
p2498
aS'<N>'
p2499
aS'<N>'
p2500
aS'<N>'
p2501
asS'Tell'
p2502
(lp2503
S'me'
p2504
ag427
aS'me'
p2505
asS'disappear'
p2506
(lp2507
S'one'
p2508
aS'one'
p2509
aS'one'
p2510
asS'if'
p2511
(lp2512
g373
aS'it'
p2513
ag373
aS'it'
p2514
aS'it'
p2515
ag373
aS'it'
p2516
ag373
aS'you'
p2517
ag373
ag373
ag373
ag373
ag373
aS'i'
p2518
ag373
ag373
aS'you'
p2519
ag373
aS'you'
p2520
ag373
ag373
ag373
ag373
aS'you'
p2521
aS'you'
p2522
ag373
aS'only,'
p2523
aS'only'
p2524
aS'you'
p2525
aS'you'
p2526
ag373
ag373
ag373
asS'your,'
p2527
(lp2528
S'your'
p2529
aS'your'
p2530
aS'your'
p2531
asg1047
(lp2532
S'<N>'
p2533
asS'things'
p2534
(lp2535
S'without'
p2536
aS'may'
p2537
aS'without'
p2538
aS'you'
p2539
aS'without'
p2540
ag373
ag373
aS'that'
p2541
aS'<N>'
p2542
ag373
aS'that'
p2543
aS'you'
p2544
aS"you'd"
p2545
aS"you'd"
p2546
ag373
asS'make'
p2547
(lp2548
S'you'
p2549
aS'you'
p2550
aS'sense'
p2551
aS'it'
p2552
aS'me'
p2553
aS'you'
p2554
aS'you'
p2555
aS'you'
p2556
aS'you'
p2557
aS'you'
p2558
aS'your'
p2559
aS'you'
p2560
aS'you'
p2561
aS'out'
p2562
aS'an'
p2563
aS'us'
p2564
aS'us'
p2565
aS'us'
p2566
aS'us'
p2567
aS'me'
p2568
aS'me'
p2569
aS'me'
p2570
aS'me'
p2571
aS'believe'
p2572
aS'me'
p2573
aS'me'
p2574
aS'me'
p2575
aS'me'
p2576
aS'me'
p2577
aS'me'
p2578
aS'me'
p2579
aS'your'
p2580
aS'you'
p2581
aS'your'
p2582
aS'you'
p2583
aS'you'
p2584
aS'your'
p2585
aS'you'
p2586
asS'"I'
p2587
(lp2588
S'chose'
p2589
asS'beside'
p2590
(lp2591
S'you'
p2592
aS'you'
p2593
aS'you'
p2594
aS'the'
p2595
aS'the'
p2596
aS'the'
p2597
asS'Of'
p2598
(lp2599
S'making'
p2600
aS'my'
p2601
aS'my'
p2602
aS'my'
p2603
aS'your'
p2604
asS"'cept"
p2605
(lp2606
S"you're"
p2607
aS"you're"
p2608
asS'Maybe'
p2609
(lp2610
S'you'
p2611
ag373
asS'hang'
p2612
(lp2613
S'on'
p2614
asS'rain'
p2615
(lp2616
S'is'
p2617
aS'<N>'
p2618
aS'<N>'
p2619
aS'<N>'
p2620
aS'<N>'
p2621
aS'<N>'
p2622
aS'<N>'
p2623
aS'<N>'
p2624
aS'<N>'
p2625
asg955
(lp2626
S'<N>'
p2627
aS'while'
p2628
aS'<N>'
p2629
aS'<N>'
p2630
aS'<N>'
p2631
aS'<N>'
p2632
aS'<N>'
p2633
aS'in'
p2634
aS'<N>'
p2635
asg1457
(lp2636
S'yeah'
p2637
asS"he'll"
p2638
(lp2639
S'be'
p2640
aS'be'
p2641
aS'be'
p2642
asS'tune'
p2643
(lp2644
S'<N>'
p2645
asS'mentioning'
p2646
(lp2647
S'love'
p2648
asS'kept'
p2649
(lp2650
S'my'
p2651
asg433
(lp2652
S'us'
p2653
asS'hearts'
p2654
(lp2655
S'break'
p2656
aS'break'
p2657
aS'break'
p2658
asS'the'
p2659
(lp2660
S'words'
p2661
aS'right'
p2662
ag1883
aS'one'
p2663
aS'space'
p2664
aS'right'
p2665
aS'best'
p2666
aS'one'
p2667
aS'space'
p2668
aS'truth'
p2669
aS'things'
p2670
aS'meaner'
p2671
aS'right'
p2672
aS'one'
p2673
aS'one'
p2674
aS'world'
p2675
aS'things'
p2676
aS'role'
p2677
aS'daylight'
p2678
aS'dark'
p2679
aS'more'
p2680
aS'sea'
p2681
aS'sun'
p2682
aS'past'
p2683
ag1894
aS'world'
p2684
aS'same'
p2685
aS'words'
p2686
ag1917
aS'one'
p2687
aS'least'
p2688
aS'same'
p2689
aS'cracks'
p2690
aS'pavement'
p2691
aS'people'
p2692
aS'wonders'
p2693
aS'wonders'
p2694
aS'wonders'
p2695
aS'wonders'
p2696
aS'city'
p2697
ag2156
aS'city'
p2698
aS'people'
p2699
aS'government'
p2700
aS'people'
p2701
aS'wonders'
p2702
aS'wonders'
p2703
aS'wonders'
p2704
aS'wonders'
p2705
ag2615
aS'whole'
p2706
aS'evening'
p2707
aS'stars'
p2708
aS'moment'
p2709
aS'avenue.'
p2710
aS'rolling'
p2711
aS'highway'
p2712
aS'ends'
p2713
aS'Earth'
p2714
aS'floor'
p2715
aS'door'
p2716
aS'back'
p2717
aS'tip'
p2718
ag1201
aS'only'
p2719
aS'only'
p2720
aS'only'
p2721
aS'only'
p2722
aS'only'
p2723
aS'only'
p2724
aS'floor'
p2725
aS'first'
p2726
aS'floor'
p2727
ag662
aS'deepest'
p2728
aS'words'
p2729
aS'empty'
p2730
aS'ones'
p2731
aS'ones'
p2732
aS'rest'
p2733
aS'rhythm'
p2734
aS'morning'
p2735
aS'world'
p2736
aS'pressure'
p2737
aS'door'
p2738
aS'way'
p2739
aS'way'
p2740
aS'heat'
p2741
aS'middle'
p2742
aS'spotlight'
p2743
aS'night'
p2744
aS'state'
p2745
aS'last'
p2746
aS'less'
p2747
aS'space'
p2748
aS'missing'
p2749
aS'sides'
p2750
ag297
aS'risk'
p2751
aS'man'
p2752
aS'risk'
p2753
aS'risk'
p2754
aS'seams,'
p2755
aS'pieces'
p2756
aS'risk'
p2757
aS'risk'
p2758
aS'place'
p2759
ag411
aS'risk'
p2760
aS'risk'
p2761
aS'risk'
p2762
aS'risk'
p2763
aS'story'
p2764
aS'darkest'
p2765
aS'day'
p2766
aS'morning'
p2767
aS'train'
p2768
aS'day'
p2769
aS'morning'
p2770
aS'day'
p2771
aS'morning'
p2772
aS'wiser'
p2773
aS'river'
p2774
aS'first'
p2775
aS'river'
p2776
aS'right'
p2777
aS'river'
p2778
aS'greatest,'
p2779
aS'sky'
p2780
ag555
aS'sky'
p2781
aS'train'
p2782
aS"blindin'"
p2783
aS'trouble'
p2784
aS'train'
p2785
ag1588
ag656
aS'time.'
p2786
ag1741
aS'way'
p2787
aS'time.'
p2788
aS'only'
p2789
aS'one'
p2790
aS'end'
p2791
aS'mention'
p2792
aS'one'
p2793
aS'end'
p2794
aS'one'
p2795
aS'end'
p2796
aS'one'
p2797
aS'end'
p2798
aS'dark'
p2799
aS'things'
p2800
aS'dark'
p2801
aS'deep'
p2802
ag2096
aS'beat'
p2803
aS'deep)'
p2804
aS'depths'
p2805
aS'deep)'
p2806
aS'deep)'
p2807
aS'deep'
p2808
aS'deep)'
p2809
aS'beat'
p2810
aS'deep)'
p2811
aS'deep'
p2812
aS'deep)'
p2813
aS'deep)'
p2814
aS'deep'
p2815
aS'deep)'
p2816
aS'beat'
p2817
aS'deep)'
p2818
aS'deep'
p2819
aS'deep)'
p2820
aS'beat.'
p2821
aS'clouds,'
p2822
aS'core,'
p2823
aS'reason'
p2824
aS'rumours?'
p2825
aS'clouds,'
p2826
aS'core,'
p2827
aS'one'
p2828
aS'one'
p2829
aS'things'
p2830
ag2011
aS'rain,'
p2831
aS'things'
p2832
aS'games'
p2833
aS'rain,'
p2834
aS'rain'
p2835
aS'flames'
p2836
aS'last'
p2837
aS'last'
p2838
aS'door,'
p2839
aS'rain,'
p2840
aS'rain,'
p2841
aS'flames'
p2842
aS'last'
p2843
aS'last'
p2844
ag552
ag1716
aS'best'
p2845
aS'time'
p2846
aS'time'
p2847
aS'surprise'
p2848
aS'blue'
p2849
aS'best'
p2850
aS'best'
p2851
aS'best'
p2852
aS'floor'
p2853
aS'heart'
p2854
aS'heart'
p2855
ag1750
aS'heart'
p2856
aS'lights'
p2857
aS'bed'
p2858
aS'dark,'
p2859
aS'power'
p2860
aS'dark,'
p2861
aS'power'
p2862
aS'people'
p2863
aS'beginning'
p2864
aS'space'
p2865
aS'lights'
p2866
aS'last'
p2867
aS'shadows'
p2868
aS'last'
p2869
aS'last'
p2870
aS'end'
p2871
ag1761
aS'end'
p2872
aS'sky'
p2873
aS'sky'
p2874
aS'sky'
p2875
aS'sky'
p2876
aS'security'
p2877
aS'sky'
p2878
aS'sky'
p2879
aS'sky'
p2880
asS'yours'
p2881
(lp2882
S'for'
p2883
asS'left'
p2884
(lp2885
S'hurts'
p2886
aS'with'
p2887
aS'behind'
p2888
aS'you'
p2889
aS'you'
p2890
aS'you'
p2891
aS'you'
p2892
aS'you'
p2893
aS'out'
p2894
aS'out'
p2895
aS'that'
p2896
aS'out'
p2897
asg2351
(lp2898
S'oh'
p2899
asS'just'
p2900
(lp2901
g1178
ag427
ag427
ag427
ag427
ag1135
aS'keep'
p2902
aS'keep'
p2903
aS'keep'
p2904
aS'keep'
p2905
aS'keep'
p2906
aS"don't"
p2907
aS'how'
p2908
aS'wandering"'
p2909
aS'crumble'
p2910
aS'begun'
p2911
ag427
aS'one'
p2912
aS'need'
p2913
aS'need'
p2914
aS'need'
p2915
aS'need'
p2916
aS'what'
p2917
aS'desert'
p2918
aS'desert'
p2919
aS'desert'
p2920
aS'about'
p2921
asS'perfect,'
p2922
(lp2923
g2024
aS'trust'
p2924
aS'trust'
p2925
aS'trust'
p2926
asS'yet'
p2927
(lp2928
S"I'm"
p2929
asg2755
(lp2930
S'no'
p2931
asS'had'
p2932
(lp2933
S'enough'
p2934
aS'enough'
p2935
aS'blame'
p2936
aS'enough'
p2937
ag427
aS'only'
p2938
aS'no'
p2939
aS'time'
p2940
aS'time'
p2941
aS'it'
p2942
aS'it'
p2943
aS'met'
p2944
aS'my'
p2945
aS'met'
p2946
aS'met'
p2947
aS'it'
p2948
aS'met'
p2949
aS'it'
p2950
aS'met'
p2951
aS'my'
p2952
aS'met'
p2953
aS'it'
p2954
aS'my'
p2955
aS'met'
p2956
aS'it'
p2957
aS'it'
p2958
aS'met'
p2959
aS'it'
p2960
aS'met'
p2961
aS'my'
p2962
aS'met'
p2963
aS'it'
p2964
aS'met'
p2965
aS'my'
p2966
aS'met'
p2967
aS'hoped'
p2968
aS'turned'
p2969
asS'tired.'
p2970
(lp2971
S'<N>'
p2972
aS'<N>'
p2973
asS'shout'
p2974
(lp2975
S'and'
p2976
asS'belongs'
p2977
(lp2978
S'on'
p2979
asS'has'
p2980
(lp2981
S'dried'
p2982
aS'begun'
p2983
aS'cleared'
p2984
aS'cleared'
p2985
aS'it'
p2986
aS'it'
p2987
aS'it'
p2988
aS'it'
p2989
aS'it'
p2990
aS'it'
p2991
asS'gave'
p2992
(lp2993
S'you'
p2994
aS'me'
p2995
aS'me'
p2996
aS'me'
p2997
asS'Morning'
p2998
(lp2999
S'will'
p3000
asS'Try'
p3001
(lp3002
S'to'
p3003
aS'to'
p3004
asg806
(lp3005
S'road'
p3006
asS'dreamt'
p3007
(lp3008
S'this'
p3009
asS'Finally,'
p3010
(lp3011
S'could'
p3012
asg2119
(lp3013
S'my'
p3014
asS'dreams'
p3015
(lp3016
S'come'
p3017
ag1753
asS'apart'
p3018
(lp3019
S'then'
p3020
aS'<N>'
p3021
asS'shoulder'
p3022
(lp3023
S'<N>'
p3024
aS'<N>'
p3025
aS'<N>'
p3026
aS'<N>'
p3027
asS'belong.'
p3028
(lp3029
S'<N>'
p3030
asS'remind'
p3031
(lp3032
S'me'
p3033
aS'me'
p3034
asg2691
(lp3035
S'<N>'
p3036
asS'Are'
p3037
(lp3038
S'the'
p3039
aS'the'
p3040
aS'the'
p3041
aS'the'
p3042
aS'the'
p3043
aS'the'
p3044
aS'the'
p3045
aS'the'
p3046
asS'night'
p3047
(lp3048
S'comes'
p3049
aS'comes'
p3050
aS'<N>'
p3051
aS'<N>'
p3052
aS'she'
p3053
aS'she'
p3054
aS'<N>'
p3055
aS'she'
p3056
asg2877
(lp3057
S'<N>'
p3058
asg2662
(lp3059
g2534
aS'things'
p3060
aS'things'
p3061
aS'<N>'
p3062
aS'through'
p3063
aS'as'
p3064
aS'as'
p3065
aS'<N>'
p3066
aS'as'
p3067
aS'as'
p3068
aS'<N>'
p3069
aS'here.'
p3070
aS'<N>'
p3071
asS'old'
p3072
(lp3073
S'<N>'
p3074
aS'<N>'
p3075
aS'<N>'
p3076
aS'road'
p3077
asg2692
(lp3078
S"I've"
p3079
aS'and'
p3080
aS"I've"
p3081
aS'things'
p3082
aS'<N>'
p3083
aS'<N>'
p3084
asS'somehow'
p3085
(lp3086
S'you'
p3087
asg739
(lp3088
S'<N>'
p3089
asS'"will'
p3090
(lp3091
S'you'
p3092
asS'born'
p3093
(lp3094
S'and'
p3095
asg958
(lp3096
S'<N>'
p3097
aS'<N>'
p3098
asg1218
(lp3099
S"it's"
p3100
asS'doorstep'
p3101
(lp3102
S'<N>'
p3103
aS'<N>'
p3104
asS'for'
p3105
(lp3106
g1513
aS'you'
p3107
aS'last'
p3108
aS'you'
p3109
aS'last'
p3110
aS'you'
p3111
aS'me'
p3112
aS'you'
p3113
aS'you)'
p3114
aS'things'
p3115
aS'you.'
p3116
aS'you.'
p3117
aS'you.'
p3118
aS'you,'
p3119
aS'you.'
p3120
aS'you'
p3121
ag427
aS'hours'
p3122
ag2126
aS'shelter'
p3123
aS'you'
p3124
aS'you'
p3125
aS'<N>'
p3126
ag427
aS'hours'
p3127
aS'life'
p3128
aS'life'
p3129
aS'you'
p3130
ag427
aS'you,'
p3131
aS'you'
p3132
aS'what,'
p3133
aS'what,'
p3134
aS'what'
p3135
aS'what,'
p3136
aS'what,'
p3137
aS'what'
p3138
aS'what,'
p3139
aS'what,'
p3140
aS'what'
p3141
aS'fire,'
p3142
aS'no'
p3143
aS'wrong'
p3144
aS'my'
p3145
aS'you'
p3146
aS'you'
p3147
aS'just'
p3148
aS'you'
p3149
aS'you'
p3150
aS'you'
p3151
aS'you'
p3152
aS'love'
p3153
aS'love'
p3154
aS'love'
p3155
aS'love'
p3156
aS'love'
p3157
aS'love'
p3158
aS'love'
p3159
aS'love'
p3160
aS'love'
p3161
aS'love'
p3162
aS'love'
p3163
aS'love'
p3164
aS'love'
p3165
aS'love'
p3166
aS'the'
p3167
aS'(woah)'
p3168
aS'you'
p3169
aS'you.'
p3170
aS'me'
p3171
aS'you'
p3172
aS'me'
p3173
aS'you'
p3174
aS'you'
p3175
aS'you'
p3176
aS'you.'
p3177
aS'<N>'
p3178
aS'me'
p3179
aS'sure'
p3180
aS'miles'
p3181
aS'sure'
p3182
aS'me'
p3183
aS'sleeping'
p3184
aS'me'
p3185
aS'me'
p3186
asS'Nobody'
p3187
(lp3188
S'knows'
p3189
asS'everything'
p3190
(lp3191
S'you'
p3192
aS'you'
p3193
aS'<N>'
p3194
aS"I've"
p3195
aS"I've"
p3196
aS"I've"
p3197
aS'different,'
p3198
aS'different,'
p3199
aS'different,'
p3200
ag373
aS'we'
p3201
asS'Let'
p3202
(lp3203
S'it'
p3204
aS'me'
p3205
aS'it'
p3206
aS'it'
p3207
aS'it'
p3208
aS'the'
p3209
aS'the'
p3210
aS'the'
p3211
aS'the'
p3212
aS'the'
p3213
aS'the'
p3214
aS'the'
p3215
asS'beating'
p3216
(lp3217
S'<N>'
p3218
asS'He'
p3219
(lp3220
S'is'
p3221
aS'would'
p3222
aS'lends'
p3223
aS'said'
p3224
aS"won't"
p3225
aS"can't"
p3226
aS"can't"
p3227
aS"can't"
p3228
asg1375
(lp3229
S'the'
p3230
aS'<N>'
p3231
aS'<N>'
p3232
ag308
asS'Think'
p3233
(lp3234
S'of'
p3235
asS'Blew'
p3236
(lp3237
S'me'
p3238
asg1227
(lp3239
S'will'
p3240
asS'spaceships'
p3241
(lp3242
S'<N>'
p3243
asg1674
(lp3244
S'on'
p3245
asS'despair'
p3246
(lp3247
S'<N>'
p3248
asS'-uette'
p3249
(lp3250
S'<N>'
p3251
aS'<N>'
p3252
aS'<N>'
p3253
aS'<N>'
p3254
aS'<N>'
p3255
aS'<N>'
p3256
aS'<N>'
p3257
aS'<N>'
p3258
aS'<N>'
p3259
aS'<N>'
p3260
aS'<N>'
p3261
aS'<N>'
p3262
asS'Still'
p3263
(lp3264
S'how'
p3265
asS'Fed'
p3266
(lp3267
S'up'
p3268
aS'up'
p3269
aS'up'
p3270
asS'for.'
p3271
(lp3272
S'<N>'
p3273
asS'for,'
p3274
(lp3275
S'<N>'
p3276
asS'Make'
p3277
(lp3278
S'you'
p3279
ag427
asg719
(lp3280
S'bare'
p3281
aS'the'
p3282
aS'turns'
p3283
aS'<N>'
p3284
aS'<N>'
p3285
aS'and'
p3286
ag2590
aS'beside'
p3287
aS'beside'
p3288
aS'<N>'
p3289
aS'there'
p3290
aS'<N>'
p3291
aS'and'
p3292
aS'the'
p3293
aS'the'
p3294
aS'these'
p3295
aS'with'
p3296
aS'my'
p3297
aS'my'
p3298
aS'<N>'
p3299
aS'<N>'
p3300
aS'<N>'
p3301
aS'<N>'
p3302
ag2030
asS'thankful'
p3303
(lp3304
S'when'
p3305
aS'when'
p3306
aS'when'
p3307
asS'cry.'
p3308
(lp3309
S'<N>'
p3310
asS'sow'
p3311
(lp3312
S'(woah)'
p3313
asS'I\xe2\x80\x99ve'
p3314
(lp3315
g579
asS'shoots'
p3316
(lp3317
S'me'
p3318
asS"Haven't"
p3319
(lp3320
S'you'
p3321
asS'fight'
p3322
(lp3323
S'it'
p3324
aS'it.'
p3325
aS'it.'
p3326
aS'<N>'
p3327
aS'<N>'
p3328
asS'why,'
p3329
(lp3330
S'<N>'
p3331
asS'way'
p3332
(lp3333
S"you've"
p3334
aS"you've"
p3335
aS"you've"
p3336
aS'too'
p3337
ag373
aS'as'
p3338
aS'<N>'
p3339
aS'too'
p3340
aS'too'
p3341
aS'too'
p3342
aS'right'
p3343
aS'too'
p3344
aS'too'
p3345
aS'<N>'
p3346
aS'<N>'
p3347
aS'you'
p3348
asg2227
(lp3349
S'not'
p3350
aS'her'
p3351
aS'her'
p3352
aS'her'
p3353
aS'her'
p3354
aS'her'
p3355
aS'her'
p3356
aS'her'
p3357
aS'her'
p3358
ag2495
aS'the'
p3359
aS'in'
p3360
aS'wrong,'
p3361
ag427
aS'free'
p3362
aS'dark'
p3363
aS'over'
p3364
aS'the'
p3365
aS'the'
p3366
aS'the'
p3367
ag427
aS'nothing'
p3368
asS'war'
p3369
(lp3370
S'<N>'
p3371
asg910
(lp3372
S'<N>'
p3373
aS'<N>'
p3374
aS"I'm"
p3375
aS'<N>'
p3376
aS"I'm"
p3377
aS"I'm"
p3378
aS'<N>'
p3379
aS'burn'
p3380
aS'in'
p3381
aS'in'
p3382
aS'<N>'
p3383
asS'offer'
p3384
(lp3385
S'you'
p3386
asg2741
(lp3387
S'of'
p3388
asS'hear'
p3389
(lp3390
g2659
aS'you'
p3391
aS'but'
p3392
aS'your'
p3393
aS'your'
p3394
aS'your'
p3395
asg3133
(lp3396
S'and'
p3397
aS'and'
p3398
aS'and'
p3399
aS'and'
p3400
aS'and'
p3401
aS'and'
p3402
asS'though...'
p3403
(lp3404
S'<N>'
p3405
asS'braver'
p3406
(lp3407
S'<N>'
p3408
aS'<N>'
p3409
asS'inside'
p3410
(lp3411
S'<N>'
p3412
aS'my'
p3413
aS'down'
p3414
aS'of'
p3415
aS'of'
p3416
aS'of'
p3417
aS'of'
p3418
aS'of'
p3419
asS'tell'
p3420
(lp3421
S'you'
p3422
aS'the'
p3423
aS'me'
p3424
aS'that'
p3425
aS'that'
p3426
aS'that'
p3427
aS'you'
p3428
aS'me'
p3429
asS'braved'
p3430
(lp3431
g427
asS'crystal'
p3432
(lp3433
S'clear'
p3434
asg1298
(lp3435
S'<N>'
p3436
asg2910
(lp3437
S'back'
p3438
aS'to'
p3439
asS'left,'
p3440
(lp3441
S'and'
p3442
asS'ship'
p3443
(lp3444
g2153
asS'shit'
p3445
(lp3446
S'<N>'
p3447
asg2715
(lp3448
S'<N>'
p3449
aS'<N>'
p3450
aS'<N>'
p3451
aS'<N>'
p3452
asg2718
(lp3453
S'of'
p3454
asS'Running'
p3455
(lp3456
S'riots'
p3457
asg2677
(lp3458
S'of'
p3459
asS'creep'
p3460
(lp3461
S'closer'
p3462
aS'out'
p3463
asS'papers'
p3464
(lp3465
S'<N>'
p3466
asS'roll'
p3467
(lp3468
S'out'
p3469
asS'picture'
p3470
(lp3471
S'the'
p3472
asS'surprise'
p3473
(lp3474
S'<N>'
p3475
aS'<N>'
p3476
aS'of'
p3477
asg458
(lp3478
g1291
aS'before'
p3479
aS'before'
p3480
aS'her'
p3481
asg2341
(lp3482
S'you'
p3483
asg2859
(lp3484
S'in'
p3485
aS'in'
p3486
asg2711
(lp3487
S'sea'
p3488
aS'in'
p3489
aS'in'
p3490
aS'in'
p3491
aS'in'
p3492
aS'in'
p3493
aS'in'
p3494
aS'in'
p3495
aS'in'
p3496
aS'in'
p3497
aS'in'
p3498
aS'in'
p3499
asS'died'
p3500
(lp3501
S'<N>'
p3502
aS'<N>'
p3503
asg2783
(lp3504
S'rain'
p3505
asS'longer'
p3506
(lp3507
S'my'
p3508
aS'my'
p3509
asg826
(lp3510
S'<N>'
p3511
aS'<N>'
p3512
aS'<N>'
p3513
aS'<N>'
p3514
aS'<N>'
p3515
aS'<N>'
p3516
aS'<N>'
p3517
asg317
(lp3518
g373
aS'<N>'
p3519
aS'<N>'
p3520
aS'again,'
p3521
aS"I'm"
p3522
aS'<N>'
p3523
ag373
aS'goes'
p3524
aS'<N>'
p3525
aS'<N>'
p3526
aS'<N>'
p3527
aS'you'
p3528
aS'<N>'
p3529
aS'he'
p3530
aS'you'
p3531
aS'against'
p3532
aS'against'
p3533
aS'<N>'
p3534
aS'at'
p3535
aS'flies'
p3536
aS'of'
p3537
aS'to'
p3538
aS'to'
p3539
aS"I'll"
p3540
aS"I'll"
p3541
aS'to'
p3542
aS'to'
p3543
aS'for'
p3544
aS'to'
p3545
aS'to'
p3546
asg2224
(lp3547
g1581
aS'lust'
p3548
aS'admitting'
p3549
aS'lost,'
p3550
aS'gonna'
p3551
aS'gonna'
p3552
aS'gonna'
p3553
ag1657
aS'my'
p3554
aS'my'
p3555
aS'no'
p3556
aS'no'
p3557
aS'no'
p3558
aS'enough'
p3559
aS'enough'
p3560
aS'enough'
p3561
aS'love,'
p3562
aS'love,'
p3563
aS'love,'
p3564
aS'love,'
p3565
aS'love,'
p3566
aS'love,'
p3567
aS'love,'
p3568
aS'love,'
p3569
aS'love,'
p3570
aS'love,'
p3571
aS'here'
p3572
ag2881
ag1573
aS'easy,'
p3573
aS'easy,'
p3574
aS'easy,'
p3575
aS'easy,'
p3576
aS'easy,'
p3577
ag1735
aS'gonna'
p3578
aS'got'
p3579
ag1156
aS'ever'
p3580
aS'ever'
p3581
asS'overdue'
p3582
(lp3583
g373
asS'souls'
p3584
(lp3585
S'sigh'
p3586
aS'sigh'
p3587
aS'sigh'
p3588
aS'sigh'
p3589
asS'inste-ad."'
p3590
(lp3591
S'<N>'
p3592
asg2228
(lp3593
S'nowhere'
p3594
aS'nowhere'
p3595
aS'nowhere'
p3596
aS'nowhere'
p3597
asS"(Nobody's"
p3598
(lp3599
g2922
aS'perfect,'
p3600
aS'perfect,'
p3601
aS'perfect,'
p3602
asS'mile'
p3603
(lp3604
S'until'
p3605
aS'until'
p3606
aS'until'
p3607
aS'until'
p3608
asS'Louisiana'
p3609
(lp3610
S'<N>'
p3611
aS'<N>'
p3612
asS'Gonna'
p3613
(lp3614
S'understand'
p3615
aS'understand'
p3616
asg1729
(lp3617
S'<N>'
p3618
asS"Ain't"
p3619
(lp3620
S'like'
p3621
asg2734
(lp3622
S'of'
p3623
asg1073
(lp3624
S'you'
p3625
asS'skyfall'
p3626
(lp3627
S'<N>'
p3628
aS'<N>'
p3629
aS'<N>'
p3630
ag308
asS'soul,'
p3631
(lp3632
S"you've"
p3633
aS"you've"
p3634
asS'Plus'
p3635
(lp3636
S"he's"
p3637
asS'stays'
p3638
(lp3639
S'all'
p3640
asg2784
(lp3641
S'that'
p3642
asS'Where'
p3643
(lp3644
S'love'
p3645
aS'worlds'
p3646
aS'you'
p3647
asS'Just'
p3648
(lp3649
g665
aS'what'
p3650
ag427
aS'thinking'
p3651
aS"'cause"
p3652
aS"'cause"
p3653
aS"'cause"
p3654
aS'take'
p3655
aS'take'
p3656
aS'take'
p3657
aS'take'
p3658
aS'hold'
p3659
aS'give'
p3660
asg1053
(lp3661
S'<N>'
p3662
asS'did'
p3663
(lp3664
S'<N>'
p3665
aS'then'
p3666
aS'you'
p3667
aS'you'
p3668
aS'me'
p3669
aS'before.'
p3670
asS'turns'
p3671
(lp3672
S'out'
p3673
aS'me'
p3674
asS'leave'
p3675
(lp3676
S'it'
p3677
aS'it'
p3678
aS'it'
p3679
aS'<N>'
p3680
aS'me'
p3681
aS'me'
p3682
aS'you'
p3683
aS'you'
p3684
aS'your'
p3685
aS'with'
p3686
aS'me'
p3687
aS'me'
p3688
aS'<N>'
p3689
aS'you'
p3690
aS'me'
p3691
asS'settle'
p3692
(lp3693
S'for'
p3694
asS'you\xe2\x80\x99ll'
p3695
(lp3696
S'never'
p3697
asg2239
(lp3698
S'on'
p3699
asS'appear,'
p3700
(lp3701
S'<N>'
p3702
asS'be'
p3703
(lp3704
g1497
aS'free'
p3705
aS'all'
p3706
aS'the'
p3707
ag427
aS'it'
p3708
ag427
ag427
aS'acting'
p3709
aS'hard'
p3710
aS'there'
p3711
aS'<N>'
p3712
aS'there'
p3713
aS'there'
p3714
ag427
ag3303
aS'thankful'
p3715
aS'thankful'
p3716
aS'an'
p3717
aS'an'
p3718
aS'an'
p3719
aS'so'
p3720
aS'alone'
p3721
aS'if'
p3722
aS'glad...'
p3723
aS'glad'
p3724
aS'so'
p3725
aS'alone'
p3726
aS'right'
p3727
aS'alone"'
p3728
aS'right'
p3729
aS'making'
p3730
aS'riding'
p3731
aS'making'
p3732
aS'right'
p3733
aS'alone'
p3734
aS'right'
p3735
aS'making'
p3736
aS'free,'
p3737
aS'better'
p3738
aS'times'
p3739
aS'home'
p3740
aS'late"'
p3741
aS'home'
p3742
aS'true.'
p3743
aS'mistaken'
p3744
aS'waiting'
p3745
aS'better'
p3746
aS'waiting'
p3747
aS'somebody'
p3748
aS'better'
p3749
aS'waiting'
p3750
aS'better'
p3751
aS'waiting'
p3752
aS'somebody'
p3753
aS'better'
p3754
ag895
aS'waiting'
p3755
aS'better'
p3756
aS'waiting'
p3757
aS'somebody'
p3758
aS'better'
p3759
aS'wishing'
p3760
ag1652
ag2527
aS'mine'
p3761
aS'your,'
p3762
aS'your,'
p3763
aS'told'
p3764
aS'shared'
p3765
aS'able'
p3766
aS'waiting'
p3767
aS'reminded'
p3768
aS'reminded'
p3769
aS'an'
p3770
aS'knocked'
p3771
ag3406
aS'my'
p3772
aS'braver'
p3773
aS'my'
p3774
aS'alright'
p3775
aS'<N>'
p3776
aS'the'
p3777
aS'the'
p3778
aS'the'
p3779
aS'me'
p3780
asS'"Baby,'
p3781
(lp3782
S'please'
p3783
asg3586
(lp3784
S'<N>'
p3785
aS'<N>'
p3786
aS'<N>'
p3787
aS'<N>'
p3788
asg2982
(lp3789
S'up'
p3790
asS'adds'
p3791
(lp3792
S'some'
p3793
asS'filler'
p3794
(lp3795
g2406
aS'in'
p3796
asS'heaviness'
p3797
(lp3798
S'in'
p3799
aS'in'
p3800
asS'melt'
p3801
(lp3802
S'<N>'
p3803
aS'my'
p3804
asS'Hear'
p3805
(lp3806
S'my'
p3807
asg3524
(lp3808
S'on'
p3809
asg3765
(lp3810
S'<N>'
p3811
asS'falling'
p3812
(lp3813
S'to'
p3814
asg3721
(lp3815
S'<N>'
p3816
aS'<N>'
p3817
aS'<N>'
p3818
aS'with'
p3819
aS'with'
p3820
aS'with'
p3821
aS'with'
p3822
aS'with'
p3823
aS'with'
p3824
aS'and'
p3825
aS'and'
p3826
asS'say,'
p3827
(lp3828
S'<N>'
p3829
aS'you'
p3830
asS'My'
p3831
(lp3832
S'oh'
p3833
aS"dignity's"
p3834
aS'hands,'
p3835
asg460
(lp3836
S'<N>'
p3837
aS'the'
p3838
aS'my'
p3839
aS'are'
p3840
aS'if'
p3841
asS'wait'
p3842
(lp3843
S'<N>'
p3844
aS'<N>'
p3845
aS'<N>'
p3846
aS'<N>'
p3847
aS'<N>'
p3848
asS'boy'
p3849
(lp3850
S'instead'
p3851
aS'who'
p3852
aS'who'
p3853
aS'who'
p3854
asg2385
(lp3855
S'<N>'
p3856
aS'<N>'
p3857
aS'<N>'
p3858
aS'<N>'
p3859
aS'<N>'
p3860
aS'<N>'
p3861
asg2836
(lp3862
S'<N>'
p3863
aS'<N>'
p3864
asg3070
(lp3865
S'<N>'
p3866
asS'Said'
p3867
(lp3868
g373
ag373
asg2648
(lp3869
S'<N>'
p3870
aS'the'
p3871
aS'<N>'
p3872
ag2980
ag308
aS'to'
p3873
aS'<N>'
p3874
ag308
aS'<N>'
p3875
aS'<N>'
p3876
aS'<N>'
p3877
aS'<N>'
p3878
aS'<N>'
p3879
ag308
aS'the'
p3880
aS'<N>'
p3881
aS'<N>'
p3882
ag308
aS'<N>'
p3883
aS'<N>'
p3884
aS'me"]'
p3885
aS'me'
p3886
aS'more,'
p3887
aS'more,'
p3888
aS'me'
p3889
aS'me'
p3890
aS'me'
p3891
aS'me'
p3892
aS'me'
p3893
aS'me'
p3894
aS'me'
p3895
aS'<N>'
p3896
aS'<N>'
p3897
aS'<N>'
p3898
aS'<N>'
p3899
aS'<N>'
p3900
aS'<N>'
p3901
aS'<N>'
p3902
aS'<N>'
p3903
aS'<N>'
p3904
aS'<N>'
p3905
aS'<N>'
p3906
aS'<N>'
p3907
aS'<N>'
p3908
ag308
aS'you'
p3909
aS'you'
p3910
aS'you'
p3911
aS'you'
p3912
aS'you'
p3913
aS'you'
p3914
aS'you'
p3915
aS'you'
p3916
aS'you'
p3917
aS'you'
p3918
aS'you'
p3919
aS'you'
p3920
aS'you'
p3921
aS'you'
p3922
ag3031
aS'remind'
p3923
aS'you'
p3924
aS'anymore,'
p3925
aS'but'
p3926
aS'but'
p3927
aS'but'
p3928
aS'but'
p3929
aS'but'
p3930
aS'but'
p3931
aS'<N>'
p3932
aS'is'
p3933
aS'me'
p3934
aS'me'
p3935
aS'you'
p3936
aS'me'
p3937
aS'me'
p3938
asS'case,'
p3939
(lp3940
S'<N>'
p3941
asS'myself,'
p3942
(lp3943
g3085
aS"you're"
p3944
asS"It's"
p3945
(lp3946
g2053
aS'been'
p3947
aS'sweet'
p3948
ag1346
aS'harder'
p3949
aS'better'
p3950
aS'harder'
p3951
aS'calling'
p3952
aS'calling'
p3953
ag427
ag427
ag427
aS'gonna'
p3954
aS'time'
p3955
aS'time'
p3956
aS'time'
p3957
asS'When'
p3958
(lp3959
S'your'
p3960
aS'you'
p3961
aS'he'
p3962
aS'the'
p3963
aS'the'
p3964
ag3047
aS"you'll"
p3965
aS'we'
p3966
aS'night'
p3967
aS'we'
p3968
ag373
ag373
ag373
ag373
ag373
ag373
ag373
aS'will'
p3969
aS'was'
p3970
aS'will'
p3971
aS'we'
p3972
aS'you'
p3973
aS'the'
p3974
aS'the'
p3975
aS'the'
p3976
ag373
ag373
aS'we'
p3977
aS'we'
p3978
aS'the'
p3979
aS'you'
p3980
aS'you'
p3981
aS"you're"
p3982
aS'you'
p3983
aS'you'
p3984
ag373
ag373
ag373
aS'it'
p3985
aS'it'
p3986
aS'it'
p3987
aS'it'
p3988
aS'it'
p3989
aS'it'
p3990
asS'myself;'
p3991
(lp3992
S'<N>'
p3993
asS'everybody'
p3994
(lp3995
S'in'
p3996
aS'sees'
p3997
asS'wings,'
p3998
(lp3999
S'cover'
p4000
aS'cover'
p4001
aS'cover'
p4002
aS'cover'
p4003
asS'prove'
p4004
(lp4005
S'that'
p4006
aS'that'
p4007
aS'that'
p4008
aS'that'
p4009
asS'fickle'
p4010
(lp4011
S'heart'
p4012
aS'heart'
p4013
asS'Fell'
p4014
(lp4015
S'off'
p4016
asS'today'
p4017
(lp4018
S'<N>'
p4019
aS'<N>'
p4020
asS'loving'
p4021
(lp4022
S'arms'
p4023
asg1913
(lp4024
S'<N>'
p4025
aS'it'
p4026
asS'These'
p4027
(lp4028
S'days'
p4029
asS'heartbreak,'
p4030
(lp4031
S'running'
p4032
asS'clue'
p4033
(lp4034
S'<N>'
p4035
aS'<N>'
p4036
aS'<N>'
p4037
asS'savior'
p4038
(lp4039
S'<N>'
p4040
aS'<N>'
p4041
asS'Time'
p4042
(lp4043
S'and'
p4044
aS'against'
p4045
aS'against'
p4046
asS'fly'
p4047
(lp4048
S'around'
p4049
asg976
(lp4050
S'<N>'
p4051
aS'<N>'
p4052
aS'<N>'
p4053
aS'through'
p4054
asS'wrong,'
p4055
(lp4056
g373
aS'<N>'
p4057
aS'<N>'
p4058
asg902
(lp4059
S'<N>'
p4060
aS'you'
p4061
asS'drags'
p4062
(lp4063
S'on'
p4064
asS'can'
p4065
(lp4066
S'see'
p4067
aS'find'
p4068
aS'tell'
p4069
aS'tell'
p4070
aS'tell'
p4071
aS'do'
p4072
aS'kick'
p4073
aS'feel'
p4074
aS'start'
p4075
aS'finish'
p4076
aS'say'
p4077
aS'take'
p4078
aS'take'
p4079
aS'spend'
p4080
aS'stand'
p4081
aS'tell'
p4082
aS'do'
p4083
aS'do'
p4084
aS'do'
p4085
aS'<N>'
p4086
aS'<N>'
p4087
aS'<N>'
p4088
aS'<N>'
p4089
aS'see'
p4090
aS'you'
p4091
aS'take'
p4092
asS'Our'
p4093
(lp4094
g2654
aS'hearts'
p4095
asS'Ohhhh'
p4096
(lp4097
g1662
asS'Out'
p4098
(lp4099
S'that'
p4100
aS'that'
p4101
asg900
(lp4102
S'on'
p4103
aS'drops'
p4104
aS"ain't"
p4105
aS'when'
p4106
aS'to'
p4107
aS'begin'
p4108
aS'to'
p4109
aS'<N>'
p4110
aS'with'
p4111
aS'<N>'
p4112
aS'with'
p4113
aS'with'
p4114
aS'with'
p4115
aS'with'
p4116
aS'out'
p4117
aS'out'
p4118
aS'<N>'
p4119
aS'out'
p4120
aS'playing'
p4121
aS'and'
p4122
aS'and'
p4123
aS'and'
p4124
aS'away'
p4125
aS'away'
p4126
aS'away'
p4127
aS'away'
p4128
aS'more'
p4129
aS'<N>'
p4130
aS'<N>'
p4131
aS'<N>'
p4132
aS'<N>'
p4133
aS'<N>'
p4134
aS'<N>'
p4135
aS'<N>'
p4136
aS'<N>'
p4137
aS'inside'
p4138
aS'inside'
p4139
aS'inside'
p4140
aS'inside'
p4141
aS'inside'
p4142
aS'melt,'
p4143
aS'melt,'
p4144
aS'you'
p4145
aS'you'
p4146
aS'you'
p4147
aS'you'
p4148
aS'feel'
p4149
aS'<N>'
p4150
aS'feel'
p4151
aS'<N>'
p4152
aS'burst'
p4153
aS'<N>'
p4154
asS'crazy'
p4155
(lp4156
S'for'
p4157
aS'for'
p4158
aS'for'
p4159
aS'things,'
p4160
asS'dropper'
p4161
(lp4162
S'<N>'
p4163
asS'figure'
p4164
(lp4165
S'before'
p4166
asS"didn't"
p4167
(lp4168
S'know'
p4169
aS'know'
p4170
aS'give'
p4171
asS'heard'
p4172
(lp4173
S'his'
p4174
aS'one'
p4175
aS"you've"
p4176
aS'the'
p4177
aS'it,'
p4178
aS'it'
p4179
aS'it'
p4180
aS'it'
p4181
aS'that'
p4182
aS'that'
p4183
asS'Shows'
p4184
(lp4185
S'that'
p4186
aS'that'
p4187
aS'that'
p4188
aS'that'
p4189
aS'that'
p4190
asS'Missing'
p4191
(lp4192
S'out'
p4193
asS'Who'
p4194
(lp4195
g3791
aS'wants'
p4196
aS'wants'
p4197
aS'wants'
p4198
aS'wants'
p4199
ag1868
aS'would'
p4200
asS'beat'
p4201
(lp4202
S'my'
p4203
aS'my'
p4204
aS'<N>'
p4205
aS'<N>'
p4206
aS'<N>'
p4207
asg2909
(lp4208
S'<N>'
p4209
asS'Why'
p4210
(lp4211
g2190
aS'do'
p4212
aS"don't"
p4213
aS"it's"
p4214
asg2537
(lp4215
S'never'
p4216
aS'have'
p4217
asg1054
(lp4218
S'<N>'
p4219
asS'hide.'
p4220
(lp4221
S'<N>'
p4222
asS'date'
p4223
(lp4224
S'<N>'
p4225
asS'hear,'
p4226
(lp4227
S'<N>'
p4228
asS'grow'
p4229
(lp4230
S'fonder'
p4231
aS'fonder'
p4232
aS'fonder'
p4233
aS'fonder'
p4234
aS'fonder'
p4235
asg2752
(lp4236
g373
asS'remember'
p4237
(lp4238
S'me'
p4239
aS'me'
p4240
aS'me'
p4241
aS'you'
p4242
aS'me?'
p4243
aS'you'
p4244
aS'you'
p4245
aS'you'
p4246
aS'you'
p4247
asg3198
(lp4248
S'<N>'
p4249
aS'<N>'
p4250
aS'<N>'
p4251
aS'<N>'
p4252
aS'<N>'
p4253
aS'<N>'
p4254
asS'whenever'
p4255
(lp4256
S'we'
p4257
asS'memory?'
p4258
(lp4259
S'<N>'
p4260
asS'taking,'
p4261
(lp4262
S'<N>'
p4263
asS'freeze,'
p4264
(lp4265
S'<N>'
p4266
asS'so'
p4267
(lp4268
S'that'
p4269
aS'much'
p4270
aS'close'
p4271
ag1544
aS'many'
p4272
aS'many'
p4273
aS'many'
p4274
aS'unkind'
p4275
aS'many'
p4276
aS'many'
p4277
aS'many'
p4278
aS'many'
p4279
aS'many'
p4280
aS'many'
p4281
aS'close,'
p4282
aS'provocative,'
p4283
aS'conservative'
p4284
aS'adventurous,'
p4285
aS'very'
p4286
aS'close,'
p4287
aS'<N>'
p4288
aS'you'
p4289
aS'you'
p4290
aS'scared'
p4291
aS'soon,'
p4292
aS'long'
p4293
ag1635
aS'easily,'
p4294
aS'down'
p4295
aS'down'
p4296
aS'down'
p4297
aS'down'
p4298
asS'tall'
p4299
(lp4300
S'<N>'
p4301
aS'<N>'
p4302
aS'<N>'
p4303
aS'<N>'
p4304
aS'<N>'
p4305
aS'<N>'
p4306
aS'<N>'
p4307
asS'talk'
p4308
(lp4309
S'<N>'
p4310
asS'no,'
p4311
(lp4312
g373
asg3760
(lp4313
g373
asS'raised'
p4314
(lp4315
S'<N>'
p4316
asS'years'
p4317
(lp4318
S'<N>'
p4319
asg2258
(lp4320
S'through'
p4321
asS'cold'
p4322
(lp4323
g3022
aS'shoulder'
p4324
aS'shoulder'
p4325
aS'shoulder'
p4326
aS'<N>'
p4327
aS'walls'
p4328
aS'walls'
p4329
aS'walls'
p4330
aS'walls'
p4331
aS'to'
p4332
aS'to'
p4333
asS'still'
p4334
(lp4335
S'not'
p4336
aS'hoping'
p4337
aS'trying'
p4338
aS'my'
p4339
aS'remember'
p4340
aS'love'
p4341
aS'<N>'
p4342
aS'<N>'
p4343
asS'thank'
p4344
(lp4345
S'you,'
p4346
asS"he's"
p4347
(lp4348
S'never'
p4349
aS'been'
p4350
aS'there'
p4351
aS'been'
p4352
aS'free?'
p4353
aS'lying'
p4354
aS'lying'
p4355
aS'the'
p4356
asS"he'd"
p4357
(lp4358
S'be'
p4359
asS'happened'
p4360
(lp4361
S'to'
p4362
aS'to'
p4363
asS'She'
p4364
(lp4365
S"ain't"
p4366
aS'is'
p4367
aS'made'
p4368
aS'made'
p4369
aS'had'
p4370
asg2208
(lp4371
S'your'
p4372
asg4336
(lp4373
g2646
ag1897
ag1276
ag1874
asS'now'
p4374
(lp4375
S'<N>'
p4376
aS'and'
p4377
aS"I've"
p4378
aS"I've"
p4379
ag373
aS"I've"
p4380
aS"I'm"
p4381
aS'<N>'
p4382
aS"it's"
p4383
aS'<N>'
p4384
aS'that'
p4385
aS'that'
p4386
aS'that'
p4387
aS'the'
p4388
aS"I'm"
p4389
aS'the'
p4390
aS'when'
p4391
aS'<N>'
p4392
asg947
(lp4393
S'like'
p4394
aS'like'
p4395
aS'like'
p4396
aS'<N>'
p4397
aS'<N>'
p4398
aS'<N>'
p4399
aS'<N>'
p4400
asS'Everything'
p4401
(lp4402
S'you'
p4403
aS'you'
p4404
aS'and'
p4405
ag373
asg4292
(lp4406
g373
asS'Watched'
p4407
(lp4408
S'you'
p4409
aS'it'
p4410
aS'it'
p4411
aS'it'
p4412
asS'quarter'
p4413
(lp4414
g1220
aS'after'
p4415
aS'after'
p4416
asS'yeah'
p4417
(lp4418
g308
aS'<N>'
p4419
aS'<N>'
p4420
aS'<N>'
p4421
ag308
asS'"No'
p4422
(lp4423
S'and'
p4424
asS'begun'
p4425
(lp4426
S'<N>'
p4427
aS'<N>'
p4428
aS'but'
p4429
asS'year'
p4430
(lp4431
S'<N>'
p4432
aS'<N>'
p4433
asS'girl'
p4434
(lp4435
S'<N>'
p4436
aS'and'
p4437
aS'<N>'
p4438
asS'sunrise'
p4439
(lp4440
S'with'
p4441
asg2664
(lp4442
S'that'
p4443
aS'that'
p4444
aS'so'
p4445
aS'between'
p4446
asS'Welcome'
p4447
(lp4448
g4439
asS'looking'
p4449
(lp4450
S'at'
p4451
aS'for'
p4452
asS'tingle'
p4453
(lp4454
S'<N>'
p4455
asS"shouldn't"
p4456
(lp4457
S'be'
p4458
aS'be,'
p4459
asS'Throw'
p4460
(lp4461
S'your'
p4462
asS'[another'
p4463
(lp4464
S'version'
p4465
asS'inste-e-ad."'
p4466
(lp4467
g308
asS'million'
p4468
(lp4469
g4317
asg3142
(lp4470
g373
asg3885
(lp4471
S'<N>'
p4472
asS'care'
p4473
(lp4474
S'<N>'
p4475
aS'<N>'
p4476
aS'no'
p4477
aS'no'
p4478
asS'Walking'
p4479
(lp4480
S'with'
p4481
aS'with'
p4482
asS'disguised'
p4483
(lp4484
S'from'
p4485
asg4231
(lp4486
S'<N>'
p4487
aS'<N>'
p4488
aS'<N>'
p4489
aS'<N>'
p4490
aS'every'
p4491
asg959
(lp4492
g1415
aS'but,'
p4493
asS'Aly,'
p4494
(lp4495
S'Mohammed'
p4496
asS'think'
p4497
(lp4498
S"you'd"
p4499
aS"I've"
p4500
aS'that'
p4501
aS"you'd"
p4502
aS'it'
p4503
aS'just'
p4504
ag373
aS"you're"
p4505
aS"you're"
p4506
ag339
aS'we'
p4507
aS"you're"
p4508
aS"you're"
p4509
aS"we'll"
p4510
aS'about'
p4511
aS'you'
p4512
aS'you'
p4513
aS'you'
p4514
asg722
(lp4515
S'love,'
p4516
aS'love,'
p4517
aS'love,'
p4518
aS'love,'
p4519
aS'love,'
p4520
aS'love,'
p4521
aS'love,'
p4522
aS'love,'
p4523
aS'love'
p4524
aS'to'
p4525
aS'sight'
p4526
asS'Even'
p4527
(lp4528
S'if'
p4529
aS'if'
p4530
aS'if'
p4531
aS'if'
p4532
aS'if'
p4533
aS'if'
p4534
aS'if'
p4535
aS'in'
p4536
aS'thought'
p4537
ag3403
aS'now'
p4538
asg2304
(lp4539
S'<N>'
p4540
asg3925
(lp4541
S'<N>'
p4542
asS'There'
p4543
(lp4544
S'is'
p4545
aS"ain't"
p4546
aS"ain't"
p4547
aS'will'
p4548
asg1239
(lp4549
g1284
aS'down.'
p4550
ag1288
aS'in'
p4551
asg2779
(lp4552
S'me'
p4553
asS'open'
p4554
(lp4555
S'up'
p4556
ag605
aS'door'
p4557
asS'eye,'
p4558
(lp4559
S'and'
p4560
aS'and'
p4561
asg2697
(lp4562
S'when'
p4563
aS'when'
p4564
asS'little'
p4565
(lp4566
S'to'
p4567
ag1692
aS'drunk'
p4568
aS'girl'
p4569
asS'caught'
p4570
(lp4571
S'the'
p4572
aS'the'
p4573
aS'must'
p4574
asS'anyone'
p4575
(lp4576
g373
asS'eyes'
p4577
(lp4578
S'<N>'
p4579
aS'never'
p4580
aS'that'
p4581
aS'cry'
p4582
aS'cry'
p4583
aS'cry'
p4584
aS'cry'
p4585
aS'<N>'
p4586
aS'your'
p4587
aS'<N>'
p4588
aS'<N>'
p4589
asS'on,'
p4590
(lp4591
S'go'
p4592
asS'that'
p4593
(lp4594
S"it's"
p4595
aS'you'
p4596
aS"you're"
p4597
ag2109
ag4360
ag373
aS'you'
p4598
aS"you're"
p4599
aS'much'
p4600
aS'happened'
p4601
ag373
aS"you'll"
p4602
aS'look'
p4603
ag3316
aS'way'
p4604
ag2638
aS'make'
p4605
aS"he'll"
p4606
aS"he'll"
p4607
aS'look'
p4608
ag1945
aS'we'
p4609
aS'we'
p4610
aS'we'
p4611
aS'we'
p4612
aS'we'
p4613
ag373
ag373
aS'way'
p4614
aS'way'
p4615
aS'are,'
p4616
aS'way'
p4617
aS'way'
p4618
ag373
ag373
aS'<N>'
p4619
aS'<N>'
p4620
aS'cry'
p4621
aS'we'
p4622
aS'it'
p4623
aS'we'
p4624
aS'it'
p4625
aS'we'
p4626
aS'it'
p4627
aS'we'
p4628
aS'it'
p4629
aS'you'
p4630
aS'dirty'
p4631
aS'everything'
p4632
aS'dirty'
p4633
aS'dirty'
p4634
aS'you'
p4635
aS'you'
p4636
aS"you'd"
p4637
aS'home'
p4638
aS'you'
p4639
aS'same'
p4640
ag576
ag373
aS"I'd"
p4641
aS'this'
p4642
ag373
ag373
aS'you'
p4643
ag373
aS"I'm"
p4644
ag1444
ag373
aS"I'm"
p4645
ag3603
aS"I'm"
p4646
aS'mile'
p4647
aS"I'm"
p4648
aS'mile'
p4649
aS"I'm"
p4650
aS'mile'
p4651
ag373
aS'we'
p4652
aS'we'
p4653
aS'really'
p4654
aS"you've"
p4655
ag373
ag373
ag373
aS'that'
p4656
aS'was'
p4657
aS'that'
p4658
aS'was'
p4659
aS"you're"
p4660
aS'your'
p4661
aS"you'd"
p4662
aS"you'd"
p4663
ag373
ag373
aS'it'
p4664
aS'it'
p4665
aS'door'
p4666
aS'night'
p4667
aS'door,'
p4668
asS'Miles'
p4669
(lp4670
S'between'
p4671
aS'between'
p4672
aS'between'
p4673
aS'between'
p4674
asg716
(lp4675
S'baby,'
p4676
asS'than'
p4677
(lp4678
g373
aS'me'
p4679
aS'feel'
p4680
aS'this'
p4681
aS'this.'
p4682
asg2690
(lp4683
S'in'
p4684
asg1978
(lp4685
S'<N>'
p4686
asS'gotta'
p4687
(lp4688
S'go'
p4689
aS'go'
p4690
asg1021
(lp4691
S'in'
p4692
aS'in'
p4693
asS'knives'
p4694
(lp4695
S'<N>'
p4696
aS'<N>'
p4697
aS'<N>'
p4698
aS'<N>'
p4699
asS'were'
p4700
(lp4701
g504
aS'both'
p4702
aS'smiling'
p4703
aS'in,'
p4704
aS'here'
p4705
aS'the'
p4706
aS'far'
p4707
aS'never'
p4708
aS'never'
p4709
ag3093
asS'wandering'
p4710
(lp4711
g4558
aS'eye,'
p4712
asg1161
(lp4713
S'<N>'
p4714
aS'that'
p4715
aS'getting'
p4716
aS'that'
p4717
ag1081
aS'<N>'
p4718
aS'me'
p4719
aS'every'
p4720
aS'time'
p4721
aS"I'll"
p4722
aS'opening'
p4723
aS'stayed'
p4724
aS'I,'
p4725
aS'strutting'
p4726
ag4344
aS'opaque'
p4727
aS'shades'
p4728
aS'the'
p4729
aS'the'
p4730
aS'blue,'
p4731
aS'free,'
p4732
aS'smash'
p4733
aS'take'
p4734
aS'everyone'
p4735
ag373
aS'be'
p4736
aS'say'
p4737
ag393
ag2974
aS'say'
p4738
aS'on'
p4739
aS'everyone'
p4740
ag373
aS'be'
p4741
aS'everyone'
p4742
ag373
aS'be'
p4743
aS'every'
p4744
aS'bleed'
p4745
ag373
aS'you'
p4746
ag373
aS'you'
p4747
aS'hands'
p4748
ag3584
aS'hands'
p4749
aS'souls'
p4750
aS'then'
p4751
aS'my'
p4752
aS'hands'
p4753
aS'souls'
p4754
aS'hands'
p4755
aS'souls'
p4756
ag4201
aS"it's"
p4757
aS'beat'
p4758
aS"you're"
p4759
aS"I'm"
p4760
aS'still'
p4761
aS"I'm"
p4762
aS"I'm"
p4763
aS'for'
p4764
aS'for'
p4765
aS'inside'
p4766
aS'outside'
p4767
aS'laughing'
p4768
aS'for'
p4769
aS'for'
p4770
aS'for'
p4771
aS'for'
p4772
ag427
ag3797
ag427
ag427
ag353
ag1880
aS'give'
p4773
aS'sit'
p4774
aS'wait'
p4775
aS'you'
p4776
aS'waiting'
p4777
aS'your'
p4778
ag2160
aS'all.'
p4779
ag3692
aS'on'
p4780
aS'you,'
p4781
aS"it's"
p4782
aS"it's"
p4783
ag373
ag373
ag373
ag373
ag373
aS'simply'
p4784
aS'only'
p4785
aS'give'
p4786
aS'simply'
p4787
aS'only'
p4788
aS'give'
p4789
aS'only'
p4790
aS'give'
p4791
aS'give'
p4792
aS'sell'
p4793
aS"I'll"
p4794
aS'reap'
p4795
ag373
ag373
aS'you'
p4796
aS'me'
p4797
aS"you're"
p4798
aS'that'
p4799
ag4314
aS'that'
p4800
aS'mistakes'
p4801
aS'no'
p4802
aS'take'
p4803
aS'take'
p4804
aS'bring'
p4805
aS'take'
p4806
aS'turned'
p4807
aS'turned'
p4808
aS'<N>'
p4809
aS'you'
p4810
aS'<N>'
p4811
aS'count'
p4812
aS'then'
p4813
ag3007
aS'poles'
p4814
aS'days'
p4815
asS"He's"
p4816
(lp4817
S'willing'
p4818
asS'tiring.'
p4819
(lp4820
S'<N>'
p4821
asg4807
(lp4822
S'me'
p4823
aS'around'
p4824
aS'me'
p4825
aS'around'
p4826
aS'me'
p4827
aS'around'
p4828
aS'the'
p4829
asS'voices'
p4830
(lp4831
S'<N>'
p4832
asS'fall,'
p4833
(lp4834
S'with'
p4835
aS'rolling'
p4836
aS'rolling'
p4837
aS'rolling'
p4838
aS'rolling'
p4839
aS'rolling'
p4840
aS'rolling'
p4841
aS'rolling'
p4842
aS'rolling'
p4843
aS'rolling'
p4844
aS'rolling'
p4845
aS'rolling'
p4846
aS'my'
p4847
asS'say'
p4848
(lp4849
S'all'
p4850
aS'<N>'
p4851
aS'all'
p4852
aS'all'
p4853
aS'enough'
p4854
aS"it's"
p4855
aS'is'
p4856
aS'but'
p4857
aS'the'
p4858
aS"it's"
p4859
aS"what's"
p4860
aS'things'
p4861
aS'my'
p4862
aS'my'
p4863
aS'your'
p4864
aS"I'm"
p4865
aS"we've"
p4866
aS"I've"
p4867
aS"I'm"
p4868
aS"we've"
p4869
aS"I've"
p4870
ag2587
ag1877
ag373
ag373
ag373
aS'<N>'
p4871
aS'crazy'
p4872
aS'<N>'
p4873
aS'more'
p4874
aS'goodbye'
p4875
aS'goodbye'
p4876
aS'goodbye'
p4877
aS'your'
p4878
aS'your'
p4879
aS'your'
p4880
asS'buried'
p4881
(lp4882
S'them'
p4883
aS'them'
p4884
asS'any'
p4885
(lp4886
g1553
asS'Do'
p4887
(lp4888
S'tell'
p4889
asS'ideas'
p4890
(lp4891
S'of'
p4892
asS'take'
p4893
(lp4894
S'it'
p4895
aS'it'
p4896
aS'it'
p4897
aS'it'
p4898
ag427
ag427
aS'the'
p4899
aS'the'
p4900
aS'the'
p4901
aS'the'
p4902
aS'the'
p4903
aS'the'
p4904
aS'the'
p4905
aS'the'
p4906
aS'the'
p4907
aS'the'
p4908
aS'it,'
p4909
aS'it'
p4910
aS'it,'
p4911
aS'it'
p4912
aS'it,'
p4913
aS'it,'
p4914
aS'it'
p4915
ag427
ag427
ag427
aS'my'
p4916
asg3741
(lp4917
S'<N>'
p4918
asg4108
(lp4919
S'to'
p4920
aS"what's"
p4921
asg1656
(lp4922
S"won't"
p4923
aS'<N>'
p4924
aS'<N>'
p4925
asg1008
(lp4926
S'<N>'
p4927
asg4875
(lp4928
S'to'
p4929
aS'to'
p4930
aS'to'
p4931
asS'track'
p4932
(lp4933
S'him'
p4934
asS'knew'
p4935
(lp4936
S'my'
p4937
aS'my'
p4938
aS'my'
p4939
ag3942
aS'<N>'
p4940
aS'that'
p4941
aS'that'
p4942
asg2984
(lp4943
S'and'
p4944
aS'and'
p4945
asg600
(lp4946
S'<N>'
p4947
asS'-uette,'
p4948
(lp4949
g3249
aS'-uette'
p4950
aS'-uette'
p4951
aS'-uette'
p4952
aS'-uette'
p4953
aS'-uette'
p4954
aS'-uette'
p4955
aS'-uette'
p4956
aS'-uette'
p4957
aS'-uette'
p4958
aS'-uette'
p4959
aS'-uette'
p4960
asS'forever'
p4961
(lp4962
S'excusing'
p4963
aS'<N>'
p4964
asS'Bursting'
p4965
(lp4966
S'at'
p4967
asS'fills'
p4968
(lp4969
S'up'
p4970
asS'Scattered'
p4971
(lp4972
S'all'
p4973
asg3728
(lp4974
S'<N>'
p4975
asS"that's"
p4976
(lp4977
S'exactly'
p4978
aS'it'
p4979
aS'it'
p4980
aS'it'
p4981
aS'it'
p4982
aS'the'
p4983
asg2059
(lp4984
S'in'
p4985
aS'<N>'
p4986
aS'for'
p4987
aS'<N>'
p4988
aS'through'
p4989
asg1262
(lp4990
S'of'
p4991
asS'imagined'
p4992
(lp4993
S'it'
p4994
aS'it'
p4995
asS'petrified,'
p4996
(lp4997
S"I'm"
p4998
asS'ground'
p4999
(lp5000
S'<N>'
p5001
asS'We'
p5002
(lp5003
S"won't"
p5004
aS"won't"
p5005
aS"won't"
p5006
aS'had'
p5007
aS'were'
p5008
aS'could'
p5009
aS'could'
p5010
aS'could'
p5011
aS'could'
p5012
aS'could'
p5013
aS'could'
p5014
aS'could'
p5015
aS'were'
p5016
aS'will'
p5017
aS'will'
p5018
aS'will'
p5019
aS'will'
p5020
aS'will'
p5021
aS'will'
p5022
aS'will'
p5023
asg4275
(lp5024
S'<N>'
p5025
asg3835
(lp5026
S"they're"
p5027
asS'storms'
p5028
(lp5029
S'are'
p5030
aS'to'
p5031
asg4767
(lp5032
S'only'
p5033
asS'try,'
p5034
(lp5035
g4311
asg2719
(lp5036
S'one'
p5037
aS'one'
p5038
aS'one'
p5039
aS'one'
p5040
aS'one'
p5041
aS'one'
p5042
aS'known'
p5043
aS'known'
p5044
aS'just'
p5045
aS'to'
p5046
aS'knows'
p5047
aS'one'
p5048
aS'<N>'
p5049
aS'<N>'
p5050
aS'<N>'
p5051
aS'you'
p5052
aS'knows'
p5053
asS'going'
p5054
(lp5055
S'back'
p5056
asS'black'
p5057
(lp5058
S'and'
p5059
aS'<N>'
p5060
aS'<N>'
p5061
aS'<N>'
p5062
aS'<N>'
p5063
aS'<N>'
p5064
aS'<N>'
p5065
aS'<N>'
p5066
aS'<N>'
p5067
aS'<N>'
p5068
aS'<N>'
p5069
aS'<N>'
p5070
aS'<N>'
p5071
aS'<N>'
p5072
asS'(Just'
p5073
(lp5074
S'for'
p5075
asS'get'
p5076
(lp5077
g1924
aS'away'
p5078
aS'away'
p5079
aS'so'
p5080
aS'the'
p5081
aS'excitement'
p5082
aS'far'
p5083
aS'excitement'
p5084
aS'nothing'
p5085
aS'nothing'
p5086
aS'closer'
p5087
aS'nothing'
p5088
aS'nothing'
p5089
aS'nothing'
p5090
aS'nothing'
p5091
asS'lighten'
p5092
(lp5093
S'up'
p5094
asS'Turn'
p5095
(lp5096
S'my'
p5097
aS'down'
p5098
aS'down'
p5099
aS'down'
p5100
asS'cannot'
p5101
(lp5102
S'take'
p5103
aS'take'
p5104
aS'bare'
p5105
asg1313
(lp5106
g287
asg945
(lp5107
S'<N>'
p5108
asg2735
(lp5109
S'glory'
p5110
aS'sun'
p5111
aS'sun'
p5112
aS'rain'
p5113
aS'rain'
p5114
aS'sun'
p5115
asg3181
(lp5116
S'<N>'
p5117
aS'and'
p5118
asS'worries'
p5119
(lp5120
S'or'
p5121
asS'where'
p5122
(lp5123
S'you'
p5124
aS'you'
p5125
aS'you'
p5126
ag373
aS'he'
p5127
ag373
aS'we'
p5128
asS"everything's"
p5129
(lp5130
g427
asS'crazy,'
p5131
(lp5132
S'<N>'
p5133
aS'<N>'
p5134
asS'Away,'
p5135
(lp5136
S'yeah'
p5137
asS'burst'
p5138
(lp5139
S'and'
p5140
aS'again'
p5141
asS'seal'
p5142
(lp5143
g4885
asS'wonder'
p5144
(lp5145
S'if'
p5146
aS'if'
p5147
asS'That'
p5148
(lp5149
S'you'
p5150
aS'you'
p5151
aS'you'
p5152
ag373
ag373
ag373
aS'heart'
p5153
aS'you'
p5154
aS'for'
p5155
aS'for'
p5156
asS'ways'
p5157
(lp5158
S'to'
p5159
aS'to'
p5160
aS'to'
p5161
asS'Forgive'
p5162
(lp5163
S'me'
p5164
aS'me'
p5165
aS'me'
p5166
aS'me'
p5167
aS'me'
p5168
aS'me'
p5169
ag366
aS'me'
p5170
aS'me'
p5171
asS'man?'
p5172
(lp5173
S'"'
p5174
asg4854
(lp5175
S'<N>'
p5176
aS'to'
p5177
aS'of'
p5178
aS'of'
p5179
aS'of'
p5180
aS'<N>'
p5181
aS'<N>'
p5182
aS'<N>'
p5183
aS'to'
p5184
aS'to'
p5185
aS'to'
p5186
aS'to'
p5187
asS'between'
p5188
(lp5189
S'the'
p5190
aS'us,'
p5191
aS'us,'
p5192
aS'us,'
p5193
aS'us,'
p5194
aS'<N>'
p5195
asS'Than'
p5196
(lp5197
g373
ag373
aS'you'
p5198
asS'whispered'
p5199
(lp5200
S'in'
p5201
asg351
(lp5202
S'and'
p5203
asS'I\xe2\x80\x99ll'
p5204
(lp5205
S'do'
p5206
asS'pluck'
p5207
(lp5208
S'your'
p5209
aS'your'
p5210
asg2936
(lp5211
S'<N>'
p5212
asS'Each'
p5213
(lp5214
S'and'
p5215
asS'come'
p5216
(lp5217
S'on'
p5218
ag2177
aS'true.'
p5219
aS'sweeping'
p5220
aS'on'
p5221
aS'on'
p5222
aS'on'
p5223
aS'<N>'
p5224
asg1726
(lp5225
g308
asg4272
(lp5226
g5157
aS'shades'
p5227
aS'shades'
p5228
aS'shades'
p5229
aS'ways'
p5230
aS'shades'
p5231
aS'shades'
p5232
aS'shades'
p5233
aS'ways'
p5234
aS'shades'
p5235
aS'shades'
p5236
aS'shades'
p5237
aS'shades'
p5238
aS'shades'
p5239
aS'shades'
p5240
aS'shades'
p5241
asS'But,'
p5242
(lp5243
g1846
ag2511
aS'baby,'
p5244
asS'pray'
p5245
(lp5246
S'for'
p5247
aS'for'
p5248
aS'for'
p5249
asS"'Cause"
p5250
(lp5251
S'hearts'
p5252
aS'when'
p5253
aS'it'
p5254
aS'who'
p5255
aS'when'
p5256
ag373
aS"there's"
p5257
ag373
ag373
ag373
ag373
ag373
aS'then'
p5258
ag373
ag373
asg3049
(lp5259
S'and'
p5260
aS'and'
p5261
asS'Guess'
p5262
(lp5263
S'she'
p5264
asS'Madam.'
p5265
(lp5266
g373
asS'bricks'
p5267
(lp5268
S'<N>'
p5269
asg2886
(lp5270
S'my'
p5271
aS'<N>'
p5272
aS'<N>'
p5273
aS'<N>'
p5274
aS'<N>'
p5275
aS'instead,'
p5276
aS'inste-ad,'
p5277
ag3590
aS'instead."'
p5278
aS'instead,'
p5279
ag4466
asS'want?'
p5280
(lp5281
S'<N>'
p5282
asS"couldn't"
p5283
(lp5284
S'help'
p5285
aS'stay'
p5286
aS'fight'
p5287
aS'stay'
p5288
aS'fight'
p5289
asS'sensible'
p5290
(lp5291
S'<N>'
p5292
asS'cares'
p5293
(lp5294
S'<N>'
p5295
asS'we\xe2\x80\x99ll'
p5296
(lp5297
S'stand'
p5298
asS'But'
p5299
(lp5300
S"you'd"
p5301
aS"you'd"
p5302
aS"it's"
p5303
aS'the'
p5304
aS'good'
p5305
aS'he'
p5306
ag373
ag373
aS'instead'
p5307
aS'we'
p5308
aS'as'
p5309
aS'at'
p5310
aS'now'
p5311
aS'lately'
p5312
aS'if'
p5313
aS'if'
p5314
aS"don't"
p5315
ag373
aS"don't"
p5316
aS'they'
p5317
ag373
ag373
aS'nothing'
p5318
aS'like'
p5319
aS'like'
p5320
aS'like'
p5321
ag373
aS'you'
p5322
aS'we'
p5323
aS'now'
p5324
aS'we'
p5325
aS'now'
p5326
aS"I've"
p5327
aS'you'
p5328
aS'you'
p5329
aS"you're"
p5330
aS"I'm"
p5331
aS'rumour'
p5332
aS'rumour'
p5333
aS'my'
p5334
aS"there's"
p5335
ag373
ag373
ag373
ag373
aS'go'
p5336
aS'go'
p5337
aS'go'
p5338
aS'the'
p5339
aS'before'
p5340
ag3695
asg1004
(lp5341
S'and'
p5342
aS'and'
p5343
asg4196
(lp5344
S'to'
p5345
aS'to'
p5346
aS'to'
p5347
aS'to'
p5348
aS'to'
p5349
asS'Whenever'
p5350
(lp5351
S'you'
p5352
aS'you'
p5353
aS'you'
p5354
aS'you'
p5355
aS'you'
p5356
aS'you'
p5357
aS'you'
p5358
aS'you'
p5359
aS"I'm"
p5360
aS"I'm"
p5361
aS"I'm"
p5362
aS"I'm"
p5363
aS"I'm"
p5364
aS"I'm"
p5365
aS"I'm"
p5366
asg1215
(lp5367
S'miles'
p5368
asS"battle's"
p5369
(lp5370
S'won'
p5371
asg277
(lp5372
S'me'
p5373
aS'up'
p5374
aS'up'
p5375
aS'up'
p5376
aS'up'
p5377
aS'up'
p5378
aS'up'
p5379
aS'up'
p5380
asS'Round'
p5381
(lp5382
S'my'
p5383
aS'my'
p5384
aS'my'
p5385
aS'my'
p5386
asS'myself'
p5387
(lp5388
S'with'
p5389
aS'up'
p5390
ag1622
ag4017
aS'but'
p5391
aS'repeating'
p5392
aS'behind'
p5393
aS'behind'
p5394
aS'in'
p5395
aS'from'
p5396
asS'these'
p5397
(lp5398
S'chances'
p5399
ag573
aS'words'
p5400
ag4830
aS'final'
p5401
aS'final'
p5402
asS'trick'
p5403
(lp5404
S'me'
p5405
asS'situation'
p5406
(lp5407
S"I'll"
p5408
aS"I'll"
p5409
asg2743
(lp5410
S'dancing'
p5411
asg3325
(lp5412
S'<N>'
p5413
aS'<N>'
p5414
asS'Slow'
p5415
(lp5416
S'it'
p5417
asS'Turning,'
p5418
(lp5419
S'oh'
p5420
asg3184
(lp5421
S'<N>'
p5422
asg2742
(lp5423
S'watching'
p5424
asg2707
(lp5425
g1419
asg661
(lp5426
S'<N>'
p5427
asS'different'
p5428
(lp5429
S'sides'
p5430
asS'pay'
p5431
(lp5432
S'off'
p5433
aS'off'
p5434
aS'off'
p5435
aS'me'
p5436
asg3768
(lp5437
S'<N>'
p5438
aS'<N>'
p5439
asg2685
(lp5440
S'<N>'
p5441
aS'way'
p5442
aS'old'
p5443
asS'Excuse'
p5444
(lp5445
S'me'
p5446
asg4725
(lp5447
g373
ag373
asS'Rumour'
p5448
(lp5449
S'has'
p5450
aS'has'
p5451
aS'has'
p5452
asg4076
(lp5453
S'what'
p5454
asg373
(lp5455
S'think'
p5456
aS'supposed'
p5457
aS'think'
p5458
aS'know'
p5459
aS'might'
p5460
aS'make'
p5461
aS'know'
p5462
aS'find'
p5463
aS'love'
p5464
aS'am'
p5465
aS'will'
p5466
aS'find'
p5467
aS'am'
p5468
aS'know'
p5469
aS'tell'
p5470
aS'need'
p5471
aS'end'
p5472
aS'give'
p5473
aS'just'
p5474
ag4935
ag3675
aS'give'
p5475
aS'just'
p5476
aS'build'
p5477
aS'give'
p5478
aS'just'
p5479
aS'knew'
p5480
aS'leave'
p5481
aS'give'
p5482
aS'just'
p5483
aS'knew'
p5484
aS'leave'
p5485
aS'give'
p5486
aS'just'
p5487
aS'just'
p5488
aS'think'
p5489
ag4065
aS'wish'
p5490
aS'was'
p5491
aS'wish'
p5492
aS'was'
p5493
aS'see'
p5494
aS'know'
p5495
aS'wish'
p5496
aS'was'
p5497
aS'wish'
p5498
aS'was'
p5499
aS'play'
p5500
aS"don't"
p5501
aS'hear'
p5502
aS'do'
p5503
aS'wish'
p5504
aS'was'
p5505
aS'wish'
p5506
aS'was'
p5507
aS'wish'
p5508
aS'was'
p5509
aS'wish'
p5510
aS'was'
p5511
aS'am'
p5512
aS"can't"
p5513
aS'wish'
p5514
aS'keep'
p5515
ag1682
aS'turn'
p5516
aS'<N>'
p5517
aS'will'
p5518
aS'can'
p5519
aS'can'
p5520
aS'start'
p5521
aS'need'
p5522
aS'stay'
p5523
aS'need'
p5524
aS'lack'
p5525
ag3663
aS'can'
p5526
aS'could'
p5527
aS"ain't"
p5528
aS'like'
p5529
aS'love'
p5530
aS'like'
p5531
aS'could'
p5532
aS'could'
p5533
aS'know'
p5534
aS'would'
p5535
aS"wouldn't"
p5536
aS'could'
p5537
aS"wouldn't"
p5538
aS'cry'
p5539
aS'shed'
p5540
aS'are'
p5541
ag4473
aS'stand'
p5542
aS'are'
p5543
aS'are'
p5544
aS'find'
p5545
aS'give'
p5546
aS'hear'
p5547
aS'made'
p5548
aS'best'
p5549
aS'turn'
p5550
aS'feel'
p5551
aS'try'
p5552
aS'fall'
p5553
aS'forgive'
p5554
aS'hear'
p5555
aS'made'
p5556
aS'best'
p5557
aS'hear'
p5558
aS'say'
p5559
aS'best'
p5560
aS'never'
p5561
aS'think'
p5562
aS'agree'
p5563
aS'think'
p5564
aS'say'
p5565
aS'like'
p5566
aS'like'
p5567
aS'thought'
p5568
aS'knew'
p5569
aS"don't"
p5570
ag4167
aS'never'
p5571
aS'think'
p5572
aS'agree'
p5573
aS'think'
p5574
aS'say'
p5575
aS'like'
p5576
aS'like'
p5577
aS'love'
p5578
aS'know,'
p5579
aS'thought'
p5580
aS'want'
p5581
aS'want'
p5582
aS'can'
p5583
aS'can'
p5584
aS'give'
p5585
aS'get'
p5586
aS'chose'
p5587
aS'quit'
p5588
aS'quit'
p5589
aS'<N>'
p5590
aS'want'
p5591
aS"don't"
p5592
aS'can'
p5593
aS'love'
p5594
ag4687
aS'quit'
p5595
aS'<N>'
p5596
aS'want'
p5597
aS"don't"
p5598
aS'can'
p5599
aS'love'
p5600
aS'gotta'
p5601
aS'quit'
p5602
aS'quit'
p5603
ag4014
aS"don't"
p5604
aS"don't"
p5605
aS'looked'
p5606
aS'get'
p5607
aS"don't"
p5608
aS"don't"
p5609
aS"don't"
p5610
aS"don't"
p5611
ag5283
aS'see'
p5612
aS'had'
p5613
aS'know'
p5614
aS'have'
p5615
aS'often'
p5616
ag1439
aS'do,'
p5617
aS'know,'
p5618
aS'know'
p5619
aS'have'
p5620
ag2649
aS'see'
p5621
aS'do'
p5622
aS'thought'
p5623
aS'knew'
p5624
aS"can't"
p5625
aS'lose'
p5626
aS'find'
p5627
aS"won't"
p5628
aS"won't"
p5629
aS"can't"
p5630
aS"won't"
p5631
aS"can't"
p5632
aS'lose'
p5633
aS"won't"
p5634
aS'give'
p5635
ag4172
aS"didn't"
p5636
aS'met'
p5637
aS"won't"
p5638
aS"can't"
p5639
aS"won't"
p5640
aS"can't"
p5641
aS'am'
p5642
aS"won't"
p5643
aS"can't"
p5644
aS"won't"
p5645
aS"can't"
p5646
aS'am'
p5647
aS"won't"
p5648
aS"won't"
p5649
aS"won't"
p5650
aS"can't"
p5651
aS'met'
p5652
aS'wish'
p5653
aS'could'
p5654
aS'went'
p5655
ag613
aS'call'
p5656
aS'wish'
p5657
aS'could'
p5658
aS'started'
p5659
aS'wish'
p5660
aS'wish'
p5661
aS'could'
p5662
aS'can'
p5663
aS'thought'
p5664
ag446
aS'fall'
p5665
ag4833
aS'found'
p5666
aS'love'
p5667
aS'ever'
p5668
ag542
aS"don't"
p5669
aS"won't"
p5670
aS'found'
p5671
aS'love'
p5672
aS'ever'
p5673
aS'cried'
p5674
aS"don't"
p5675
aS"ain't"
p5676
aS'could'
p5677
aS'found'
p5678
aS"don't"
p5679
ag284
aS'do,'
p5680
aS'know'
p5681
aS'left'
p5682
aS'see'
p5683
aS'can'
p5684
aS'was'
p5685
aS'was'
p5686
aS'know'
p5687
aS'left'
p5688
aS'see'
p5689
aS'know'
p5690
aS'left'
p5691
aS'know'
p5692
aS'left'
p5693
aS'know'
p5694
aS'left'
p5695
aS"wouldn't"
p5696
aS'was'
p5697
aS'know'
p5698
aS'know'
p5699
aS'am'
p5700
aS'am'
p5701
aS'am'
p5702
aS'am'
p5703
aS'will'
p5704
aS'stay'
p5705
aS'will'
p5706
aS'say'
p5707
aS'will'
p5708
aS'will'
p5709
aS'am'
p5710
aS'am'
p5711
aS'will'
p5712
aS'stay'
p5713
aS'will'
p5714
aS'say'
p5715
aS'will'
p5716
aS'will'
p5717
aS'will'
p5718
aS'stay'
p5719
aS'will'
p5720
aS'say'
p5721
aS'will'
p5722
aS'love'
p5723
aS"can't"
p5724
ag5144
aS'ever'
p5725
aS'need'
p5726
aS"wouldn't"
p5727
aS'lost'
p5728
aS'need'
p5729
aS"don't"
p5730
aS'can'
p5731
aS'just'
p5732
aS'wonder'
p5733
aS'ever'
p5734
aS'need'
p5735
aS"wouldn't"
p5736
aS'lost'
p5737
aS'need'
p5738
aS"don't"
p5739
aS'can'
p5740
aS'just'
p5741
aS'need'
p5742
aS'said'
p5743
aS"wouldn't"
p5744
aS'need'
p5745
aS"don't"
p5746
aS'can'
p5747
aS'just'
p5748
aS'just'
p5749
aS'need'
p5750
aS'grow'
p5751
aS'want'
p5752
aS"don't"
p5753
aS'dare'
p5754
aS'say'
p5755
aS'ever'
p5756
aS'choose'
p5757
aS"don't"
p5758
aS'dare'
p5759
aS'promise'
p5760
aS'know'
p5761
aS'Know'
p5762
aS'know'
p5763
aS'know'
p5764
aS'know'
p5765
aS'know'
p5766
aS'dare'
p5767
aS'promise'
p5768
aS'can'
p5769
aS'leave'
p5770
aS'will'
p5771
aS"can't"
p5772
aS'have'
p5773
aS"can't"
p5774
aS'will,'
p5775
aS'have'
p5776
aS'heard'
p5777
aS'cannot'
p5778
aS'said'
p5779
aS'meant'
p5780
aS'said'
p5781
aS'meant'
p5782
aS'let'
p5783
aS'was'
p5784
aS'never'
p5785
aS'set'
p5786
ag1775
aS'cried'
p5787
aS'heard'
p5788
aS'lay'
p5789
aS'could'
p5790
aS'never'
p5791
aS'set'
p5792
aS'touched'
p5793
aS'cried'
p5794
aS'heard'
p5795
aS'set'
p5796
ag2122
aS'knew'
p5797
aS'wake'
p5798
aS"can't"
p5799
aS'set'
p5800
aS'touched'
p5801
aS'cried'
p5802
aS'heard'
p5803
aS'set'
p5804
aS'threw'
p5805
aS'knew'
p5806
aS'heard'
p5807
aS'heard'
p5808
aS"didn't"
p5809
ag403
aS"couldn't"
p5810
aS"couldn't"
p5811
aS'had'
p5812
aS'wish'
p5813
aS'beg'
p5814
aS'remember'
p5815
aS'hate'
p5816
aS"couldn't"
p5817
aS"couldn't"
p5818
aS'wish'
p5819
aS'beg'
p5820
aS'remember'
p5821
aS'wish'
p5822
aS'beg'
p5823
aS'remember'
p5824
aS'wish'
p5825
aS'beg'
p5826
aS'remember'
p5827
aS'give'
p5828
aS'had,'
p5829
aS'do'
p5830
aS'let'
p5831
aS'should'
p5832
aS'thought'
p5833
aS'will'
p5834
aS'must.'
p5835
aS'will'
p5836
aS'do'
p5837
aS'have'
p5838
aS'say,'
p5839
aS"can't"
p5840
aS"can't"
p5841
aS"won't"
p5842
aS"won't"
p5843
aS"can't"
p5844
aS'see'
p5845
ag3430
aS'will'
p5846
aS"can't"
p5847
aS"can't"
p5848
aS"won't"
p5849
aS"won't"
p5850
aS"can't"
p5851
aS"won't"
p5852
aS"won't"
p5853
aS"can't"
p5854
aS"can't"
p5855
aS'will'
p5856
aS'will'
p5857
aS"can't"
p5858
aS"won't"
p5859
aS'will'
p5860
aS"can't"
p5861
aS'will'
p5862
aS'will'
p5863
aS"can't"
p5864
aS'feel'
p5865
aS'feel'
p5866
aS'<N>'
p5867
aS'turned'
p5868
aS"don't"
p5869
aS'know'
p5870
aS'feel'
p5871
aS"don't"
p5872
aS'keep'
p5873
aS"ain't"
p5874
aS'feel'
p5875
aS'turned'
p5876
aS'left'
p5877
aS"ain't"
p5878
aS'feel'
p5879
aS'feel'
p5880
aS'<N>'
p5881
aS'turned'
p5882
aS"don't"
p5883
aS'know'
p5884
ag5207
aS'die'
p5885
aS'wake'
p5886
aS'pluck'
p5887
aS'die'
p5888
aS'wake'
p5889
aS'wanna'
p5890
aS'die'
p5891
aS'wake'
p5892
aS'owe'
p5893
aS'go'
p5894
aS'see'
p5895
aS'know'
p5896
asg4032
(lp5897
S'around'
p5898
asS'Is'
p5899
(lp5900
S'the'
p5901
aS'there'
p5902
aS'exactly'
p5903
aS'this'
p5904
asS'vacant'
p5905
(lp5906
S'broken'
p5907
asS'It'
p5908
(lp5909
g3671
aS'had'
p5910
ag4062
aS'was'
p5911
aS'all,'
p5912
aS'was'
p5913
aS'was'
p5914
asg2536
(lp5915
g427
ag427
ag427
aS'you'
p5916
aS'parole'
p5917
aS'parole'
p5918
asg5513
(lp5919
S'help'
p5920
aS'beg'
p5921
aS'do'
p5922
aS'do'
p5923
aS'do'
p5924
aS'do'
p5925
aS'do'
p5926
aS'do'
p5927
aS'do'
p5928
aS'do'
p5929
aS'do'
p5930
aS'do'
p5931
ag3322
aS'stop'
p5932
aS'help'
p5933
aS'help'
p5934
aS'help'
p5935
aS'keep'
p5936
ag626
aS'give'
p5937
aS'keep'
p5938
aS'breathe'
p5939
aS'give'
p5940
aS'give'
p5941
aS'make'
p5942
aS'make'
p5943
aS'make'
p5944
aS'make'
p5945
aS'make'
p5946
aS'make'
p5947
aS'understand'
p5948
asS'In'
p5949
(lp5950
S'this'
p5951
ag427
ag3241
aS'the'
p5952
asS'Pulls'
p5953
(lp5954
S'me'
p5955
asS'Id'
p5956
(lp5957
S'rather'
p5958
asS'If'
p5959
(lp5960
S"I'm"
p5961
ag373
ag373
aS'you'
p5962
aS'this'
p5963
aS'this'
p5964
aS'this'
p5965
aS'this'
p5966
aS'this'
p5967
aS'this'
p5968
aS'this'
p5969
aS'this'
p5970
aS'this'
p5971
aS'this'
p5972
aS'it'
p5973
aS'it'
p5974
aS'it'
p5975
aS'it'
p5976
aS'it'
p5977
aS'it'
p5978
aS'it'
p5979
aS'it'
p5980
aS'it'
p5981
aS'it'
p5982
aS'it'
p5983
aS'it'
p5984
aS'it'
p5985
aS'it'
p5986
aS'it'
p5987
aS'it'
p5988
aS'it'
p5989
aS'it'
p5990
aS'it'
p5991
aS'it'
p5992
aS"I've"
p5993
aS'you'
p5994
asS'summer'
p5995
(lp5996
g419
asg1516
(lp5997
g373
aS'you'
p5998
aS'he'
p5999
ag373
aS'the'
p6000
aS'two'
p6001
aS'its'
p6002
aS"it's"
p6003
aS'its'
p6004
aS'to'
p6005
aS'to'
p6006
aS'to'
p6007
aS'to'
p6008
aS'something'
p6009
aS"you're"
p6010
aS'hard'
p6011
aS"you're"
p6012
aS'hard'
p6013
aS'something'
p6014
aS"you're"
p6015
aS'hard'
p6016
aS'you'
p6017
aS'all'
p6018
aS"he's"
p6019
aS"you're"
p6020
aS"you're"
p6021
aS"you're"
p6022
aS"you're"
p6023
aS"you're"
p6024
aS"you're"
p6025
aS'we'
p6026
aS'she'
p6027
aS"we're"
p6028
asS'neon'
p6029
(lp6030
g414
asg2733
(lp6031
S'<N>'
p6032
asg1504
(lp6033
S'<N>'
p6034
asg3651
(lp6035
S'of'
p6036
aS'that'
p6037
aS'that'
p6038
asg4866
(lp6039
S'only'
p6040
aS'only'
p6041
asg2263
(lp6042
S'<N>'
p6043
asS'(I'
p6044
(lp6045
S'should'
p6046
asS"Somethin'"
p6047
(lp6048
S'that'
p6049
aS'that'
p6050
asg1843
(lp6051
g373
asS'real'
p6052
(lp6053
S'lover'
p6054
asS'rumour'
p6055
(lp6056
S'has'
p6057
aS'has'
p6058
aS'has'
p6059
asg5898
(lp6060
S'<N>'
p6061
aS'in'
p6062
aS'to'
p6063
aS'me,'
p6064
aS'the'
p6065
aS'<N>'
p6066
aS'<N>'
p6067
aS'<N>'
p6068
asg3551
(lp6069
S'stand'
p6070
ag4893
aS'stand'
p6071
aS'wish'
p6072
aS'fall,'
p6073
aS'wish'
p6074
aS'fall,'
p6075
aS'make'
p6076
aS'wish'
p6077
aS'fall,'
p6078
aS'wish'
p6079
aS'fall,'
p6080
aS'wish'
p6081
aS'fall,'
p6082
aS'wish'
p6083
aS'fall,'
p6084
aS'wish'
p6085
aS'fall,'
p6086
aS'wish'
p6087
aS'fall,'
p6088
aS'wish'
p6089
aS'fall,'
p6090
aS'wish'
p6091
aS'fall,'
p6092
aS'wish'
p6093
aS'fall,'
p6094
aS'wish'
p6095
aS'be'
p6096
aS'be'
p6097
aS'be'
p6098
asg2679
(lp6099
S'<N>'
p6100
aS'<N>'
p6101
aS'<N>'
p6102
aS'and'
p6103
aS'<N>'
p6104
asg2675
(lp6105
S'<N>'
p6106
aS'<N>'
p6107
aS'<N>'
p6108
aS'<N>'
p6109
aS'<N>'
p6110
aS'<N>'
p6111
aS'<N>'
p6112
aS'<N>'
p6113
aS'<N>'
p6114
aS'<N>'
p6115
aS'<N>'
p6116
aS'<N>'
p6117
ag4417
aS'is'
p6118
aS'that'
p6119
aS'around'
p6120
asg4795
(lp6121
S'just'
p6122
asS'dare'
p6123
(lp6124
S'you'
p6125
aS'you'
p6126
aS'you'
p6127
aS'you'
p6128
aS'you'
p6129
asg4768
(lp6130
S'at'
p6131
asg4779
(lp6132
S'<N>'
p6133
aS'<N>'
p6134
asS'boils,'
p6135
(lp6136
S'<N>'
p6137
asS'Before'
p6138
(lp6139
g373
ag373
asg964
(lp6140
S'ache'
p6141
aS'using'
p6142
aS'made.'
p6143
asg4284
(lp6144
S'<N>'
p6145
asg1019
(lp6146
S'<N>'
p6147
asS'Wake'
p6148
(lp6149
S'me'
p6150
asS'knees.'
p6151
(lp6152
S'<N>'
p6153
asg2860
(lp6154
S'but'
p6155
aS'but'
p6156
asS'broken'
p6157
(lp6158
g2643
ag3849
asS"You'll"
p6159
(lp6160
g2506
aS'disappear'
p6161
aS'disappear'
p6162
aS'never'
p6163
aS'pay'
p6164
asS'stayed,'
p6165
(lp6166
S'<N>'
p6167
asg4103
(lp6168
S'my'
p6169
ag1159
ag4374
aS'you'
p6170
aS"chasin'"
p6171
aS"chasin'"
p6172
aS'me'
p6173
aS'trying,'
p6174
aS'the'
p6175
aS'your'
p6176
aS'my'
p6177
aS'words'
p6178
aS'your'
p6179
aS'the'
p6180
aS'the'
p6181
aS'the'
p6182
aS'you'
p6183
aS'your'
p6184
aS'the'
p6185
aS'that'
p6186
aS'chairs'
p6187
aS'that'
p6188
aS'chairs'
p6189
aS'and'
p6190
aS'your'
p6191
ag1547
aS'down'
p6192
aS'my'
p6193
aS'top'
p6194
aS'<N>'
p6195
aS'<N>'
p6196
aS'<N>'
p6197
aS'<N>'
p6198
ag308
aS'as'
p6199
aS'my'
p6200
aS'my'
p6201
aS'my'
p6202
aS'my'
p6203
aS'my'
p6204
aS'my'
p6205
aS'his'
p6206
aS'his'
p6207
aS'his'
p6208
aS'my'
p6209
aS'top'
p6210
aS'home'
p6211
aS'her'
p6212
aS'every'
p6213
aS'my'
p6214
aS'my'
p6215
aS'my'
p6216
aS'and'
p6217
aS'your'
p6218
aS'every'
p6219
aS'and'
p6220
aS'and'
p6221
aS'and'
p6222
aS'you'
p6223
aS'and'
p6224
aS'and'
p6225
aS'<N>'
p6226
aS'and'
p6227
aS'the'
p6228
aS'my'
p6229
aS'<N>'
p6230
aS'<N>'
p6231
asS'stone'
p6232
(lp6233
S'<N>'
p6234
aS'<N>'
p6235
asg4353
(lp6236
S'<N>'
p6237
asS'oh'
p6238
(lp6239
S'<N>'
p6240
aS'my,'
p6241
aS'<N>'
p6242
aS'oh'
p6243
aS'oh'
p6244
aS'yaaaaaa'
p6245
aS'<N>'
p6246
ag308
asS'of'
p6247
(lp6248
S'your'
p6249
aS'the'
p6250
aS'the'
p6251
aS'the'
p6252
ag4694
aS'knives'
p6253
aS'fool'
p6254
aS'knives'
p6255
aS'knives'
p6256
aS'their'
p6257
aS'your'
p6258
aS'my'
p6259
aS'my'
p6260
aS'this'
p6261
aS'my'
p6262
aS'my'
p6263
aS'my'
p6264
aS'this'
p6265
aS'my'
p6266
ag336
aS'change'
p6267
aS'the'
p6268
aS'black'
p6269
aS'black'
p6270
aS'black'
p6271
aS'my'
p6272
aS'my'
p6273
aS'black'
p6274
aS'black'
p6275
aS'black'
p6276
aS'black'
p6277
aS'black'
p6278
aS'black'
p6279
aS'black'
p6280
aS'black'
p6281
aS'black'
p6282
aS'black'
p6283
ag5267
aS'me'
p6284
aS'the'
p6285
aS'life'
p6286
aS'me'
p6287
aS'love'
p6288
aS'love'
p6289
aS'love'
p6290
aS'moments'
p6291
aS'trying'
p6292
ag1391
aS'trying'
p6293
aS'biding'
p6294
aS'trying'
p6295
aS'biding'
p6296
aS'the'
p6297
ag1664
aS'my'
p6298
aS'your'
p6299
aS'you'
p6300
aS'town'
p6301
aS'whiskey,'
p6302
aS'your'
p6303
aS'my'
p6304
aS'you'
p6305
aS'your'
p6306
aS'us'
p6307
aS'your'
p6308
aS'your'
p6309
aS'me'
p6310
aS'your'
p6311
aS'your'
p6312
aS'us'
p6313
aS'your'
p6314
aS'your'
p6315
aS'your'
p6316
aS'your'
p6317
aS'your'
p6318
aS'you,'
p6319
aS'me,'
p6320
aS'these'
p6321
aS'the'
p6322
aS'our'
p6323
aS'our'
p6324
aS'the'
p6325
aS'this'
p6326
asg6070
(lp6327
S'<N>'
p6328
ag3445
aS'firm'
p6329
aS'beside'
p6330
aS'by'
p6331
aS'by'
p6332
aS'beside'
p6333
aS'beside'
p6334
aS'in'
p6335
ag4299
aS'tall'
p6336
aS'tall'
p6337
aS'tall'
p6338
aS'<N>'
p6339
aS'tall'
p6340
aS'tall'
p6341
aS'tall'
p6342
asS'act'
p6343
(lp6344
S'<N>'
p6345
aS'<N>'
p6346
aS'<N>'
p6347
asg1815
(lp6348
g373
ag373
ag373
asg2249
(lp6349
S'let'
p6350
asS'or'
p6351
(lp6352
S'if'
p6353
ag400
ag5293
asg3077
(lp6354
S'that'
p6355
ag373
aS'<N>'
p6356
asS'Yes,'
p6357
(lp6358
g373
asS'burning'
p6359
(lp6360
S'and'
p6361
asS'No'
p6362
(lp6363
S'doubt'
p6364
ag1603
ag5119
aS'you'
p6365
aS'you'
p6366
asS'Memories'
p6367
(lp6368
S'are'
p6369
aS'are'
p6370
asg6249
(lp6371
g1727
ag4577
ag4322
aS'heart'
p6372
aS'cold'
p6373
aS'cold'
p6374
aS'cold'
p6375
aS'name,'
p6376
ag3101
aS'eyes,'
p6377
aS'face,'
p6378
ag3939
ag312
ag1639
ag3015
aS'mind'
p6379
aS'intentions'
p6380
aS'words'
p6381
aS'way'
p6382
aS'words'
p6383
aS'words'
p6384
aS'name'
p6385
aS'bones'
p6386
aS'own'
p6387
aS'worst'
p6388
aS'hair'
p6389
aS'face'
p6390
aS'kisses'
p6391
aS'kisses'
p6392
aS'in'
p6393
aS'heart'
p6394
aS'were'
p6395
aS'mind'
p6396
aS'time'
p6397
aS'time'
p6398
aS'time'
p6399
aS'open'
p6400
ag4258
aS'face'
p6401
aS'head'
p6402
aS'face'
p6403
aS'face'
p6404
aS'charm'
p6405
aS'call,'
p6406
ag5172
aS'eyes,'
p6407
aS'last'
p6408
aS'face'
p6409
aS'world'
p6410
aS'mind.'
p6411
aS'mind.'
p6412
aS'face'
p6413
aS'past'
p6414
aS'one'
p6415
aS'arms'
p6416
aS'mind'
p6417
aS'past'
p6418
aS'one'
p6419
aS'arms'
p6420
aS'heart'
p6421
aS'heart'
p6422
aS'heart'
p6423
aS'heart'
p6424
aS'heart'
p6425
aS'heart'
p6426
aS'one'
p6427
aS'arms'
p6428
ag3443
aS'love'
p6429
aS'love,'
p6430
aS'hand'
p6431
aS'head'
p6432
ag3246
aS'love'
p6433
aS'love,'
p6434
aS'hand'
p6435
aS'hand'
p6436
aS'soul'
p6437
aS'blessings'
p6438
aS'hand'
p6439
aS'hand'
p6440
ag3631
aS'head'
p6441
aS'heart'
p6442
aS'love'
p6443
aS'age,'
p6444
aS'soul!...)'
p6445
aS'soul,'
p6446
aS'head'
p6447
aS'arms'
p6448
aS'feet'
p6449
aS'face,'
p6450
aS'name,'
p6451
aS'name!'
p6452
aS'face,'
p6453
aS'name,'
p6454
aS'name!'
p6455
aS'face,'
p6456
aS'name,'
p6457
aS'name'
p6458
aS'dreams'
p6459
ag1485
aS'thumb'
p6460
aS'ghost'
p6461
aS'turning'
p6462
aS'thumb'
p6463
aS'heart'
p6464
aS'heart'
p6465
ag3998
aS'wings,'
p6466
aS'grace'
p6467
aS'knees'
p6468
aS'wings,'
p6469
aS'wings,'
p6470
aS'grace'
p6471
aS'knees'
p6472
aS'grace'
p6473
aS'knees'
p6474
aS'breath'
p6475
ag4021
aS'hand'
p6476
asS'her'
p6477
(lp6478
S'<N>'
p6479
aS'<N>'
p6480
aS'<N>'
p6481
aS'<N>'
p6482
aS'<N>'
p6483
aS'<N>'
p6484
aS'<N>'
p6485
aS'<N>'
p6486
ag308
ag4164
aS'<N>'
p6487
ag6151
ag3274
asS'Though'
p6488
(lp6489
S'winds'
p6490
aS'your'
p6491
aS'your'
p6492
aS"I'm"
p6493
asg2055
(lp6494
g3105
aS'<N>'
p6495
aS'<N>'
p6496
aS'<N>'
p6497
aS'for'
p6498
aS'for'
p6499
aS'for'
p6500
aS'for'
p6501
aS'for'
p6502
aS'for'
p6503
aS'anything'
p6504
ag4575
aS'is'
p6505
aS'to'
p6506
aS'could'
p6507
aS'could'
p6508
aS'should'
p6509
aS"ain't"
p6510
aS'<N>'
p6511
aS'<N>'
p6512
aS'<N>'
p6513
aS'was'
p6514
asg2918
(lp6515
S'me'
p6516
aS'me'
p6517
aS'me'
p6518
asg5521
(lp6519
S'to'
p6520
aS'to'
p6521
ag427
aS'<N>'
p6522
asg2708
(lp6523
g3700
asg3116
(lp6524
S'<N>'
p6525
aS'<N>'
p6526
aS'<N>'
p6527
aS'<N>'
p6528
aS'<N>'
p6529
aS'<N>'
p6530
aS'<N>'
p6531
ag308
aS'<N>'
p6532
aS'<N>'
p6533
aS'<N>'
p6534
aS'<N>'
p6535
aS'<N>'
p6536
aS'<N>'
p6537
aS'<N>'
p6538
asg3119
(lp6539
S'<N>'
p6540
aS'please'
p6541
aS'<N>'
p6542
ag4357
aS'<N>'
p6543
aS'<N>'
p6544
aS'<N>'
p6545
aS'<N>'
p6546
aS'<N>'
p6547
aS'<N>'
p6548
aS'<N>'
p6549
aS'<N>'
p6550
aS'<N>'
p6551
asg3114
(lp6552
S'<N>'
p6553
asS'you!'
p6554
(lp6555
S'<N>'
p6556
ag308
asS'trying'
p6557
(lp6558
S'to'
p6559
aS'to'
p6560
aS'my'
p6561
aS'to'
p6562
aS'to'
p6563
aS'<N>'
p6564
aS'<N>'
p6565
aS'<N>'
p6566
aS'<N>'
p6567
asS'with'
p6568
(lp6569
S'you'
p6570
aS'trying'
p6571
aS'you'
p6572
aS'trying'
p6573
aS'this'
p6574
aS'you'
p6575
aS'you'
p6576
aS'your'
p6577
aS'words'
p6578
aS'your'
p6579
aS'words'
p6580
aS'your'
p6581
aS'words'
p6582
aS'your'
p6583
aS'words'
p6584
aS'this'
p6585
aS'you'
p6586
aS'my'
p6587
aS'you'
p6588
aS'each'
p6589
aS'you'
p6590
aS'each'
p6591
aS'the'
p6592
aS'my'
p6593
ag566
aS'the'
p6594
aS'golden'
p6595
aS'golden'
p6596
aS'golden'
p6597
aS'golden'
p6598
aS'your'
p6599
aS'the'
p6600
aS'no'
p6601
aS'my'
p6602
aS'you'
p6603
aS'you'
p6604
aS'you'
p6605
aS'you'
p6606
aS'you'
p6607
aS'you'
p6608
aS'every'
p6609
ag427
aS'you'
p6610
aS'you.'
p6611
aS'you.'
p6612
aS'you.'
p6613
aS'you.'
p6614
aS'your'
p6615
aS'your'
p6616
aS'me'
p6617
aS'me'
p6618
aS'me'
p6619
aS'you'
p6620
asS'spice'
p6621
(lp6622
S'to'
p6623
asS'pull'
p6624
(lp6625
S'me'
p6626
asg4616
(lp6627
S'so'
p6628
asg1882
(lp6629
S'<N>'
p6630
asg4631
(lp6631
S'smile'
p6632
aS'smile'
p6633
aS'smile'
p6634
aS'waters,'
p6635
asS'Close'
p6636
(lp6637
S'my'
p6638
aS'enough'
p6639
asg5563
(lp6640
S'with'
p6641
aS'with'
p6642
asg2070
(lp6643
S'like'
p6644
aS'to'
p6645
asS'taste'
p6646
(lp6647
S'for'
p6648
ag427
asS'describe'
p6649
(lp6650
S'him'
p6651
asS'am'
p6652
(lp6653
g373
aS'<N>'
p6654
aS'right'
p6655
aS"I'm"
p6656
aS'willing'
p6657
aS'willing'
p6658
aS'home'
p6659
aS'whole'
p6660
aS'young'
p6661
aS'fun'
p6662
aS'free'
p6663
aS'clean'
p6664
asg2802
(lp6665
S'<N>'
p6666
aS'<N>'
p6667
aS'<N>'
p6668
aS'<N>'
p6669
aS'<N>'
p6670
asg3717
(lp6671
S'us'
p6672
aS'us'
p6673
aS'us'
p6674
ag2145
aS'empty'
p6675
asS'How'
p6676
(lp6677
g6123
aS'dare'
p6678
aS"I'm"
p6679
asg4963
(lp6680
S'your'
p6681
asS'at'
p6682
(lp6683
S'me'
p6684
aS'me'
p6685
aS'me'
p6686
aS'me'
p6687
aS'me'
p6688
aS'me'
p6689
aS'me'
p6690
aS'me'
p6691
aS'all,'
p6692
aS'all,'
p6693
aS'least'
p6694
aS'your'
p6695
aS'all'
p6696
aS'all'
p6697
aS'my'
p6698
aS'least'
p6699
aS'the'
p6700
aS'the'
p6701
aS'the'
p6702
aS'all.'
p6703
aS'the'
p6704
asS'walks'
p6705
(lp6706
S'<N>'
p6707
asS'watched'
p6708
(lp6709
S'you'
p6710
asS'again'
p6711
(lp6712
S'<N>'
p6713
aS'<N>'
p6714
aS'<N>'
p6715
aS'<N>'
p6716
aS'<N>'
p6717
aS'<N>'
p6718
aS'<N>'
p6719
aS'<N>'
p6720
aS'<N>'
p6721
asg2823
(lp6722
S'<N>'
p6723
aS'<N>'
p6724
asS'back,'
p6725
(lp6726
S'oh'
p6727
asS'tight'
p6728
(lp6729
S'<N>'
p6730
asS'Lay'
p6731
(lp6732
S'down'
p6733
aS'me'
p6734
asg6406
(lp6735
S'<N>'
p6736
aS'but'
p6737
asg1785
(lp6738
S'see'
p6739
aS'to'
p6740
ag2900
aS'feel'
p6741
aS'need'
p6742
aS'never'
p6743
aS'<N>'
p6744
ag2221
ag4497
aS'want'
p6745
aS'go'
p6746
aS'say'
p6747
aS'feel'
p6748
aS'need'
p6749
aS'never'
p6750
aS'<N>'
p6751
aS'it'
p6752
aS'think'
p6753
aS'<N>'
p6754
aS'do'
p6755
aS'treat'
p6756
aS'and'
p6757
aS'feel'
p6758
aS'need'
p6759
ag308
aS'<N>'
p6760
aS'<N>'
p6761
aS'been'
p6762
aS'look'
p6763
aS'look'
p6764
aS'<N>'
p6765
aS'waste'
p6766
aS'feel'
p6767
aS'grace'
p6768
aS'look'
p6769
aS'look'
p6770
aS'think'
p6771
aS'<N>'
p6772
aS'play'
p6773
aS'look'
p6774
aS'look'
p6775
aS'look'
p6776
aS'look'
p6777
ag4700
aS'who'
p6778
aS'want'
p6779
aS'want'
p6780
ag308
aS'can'
p6781
ag3801
aS'<N>'
p6782
aS'<N>'
p6783
aS'through'
p6784
aS'smile,'
p6785
ag5092
aS'dear?'
p6786
ag427
aS'feel'
p6787
aS'for'
p6788
aS'feel'
p6789
aS"haven't"
p6790
aS'wrong.'
p6791
ag3028
aS'feel'
p6792
aS'happy,'
p6793
aS'feel'
p6794
aS'feel'
p6795
aS'out'
p6796
aS'<N>'
p6797
aS'and'
p6798
aS'<N>'
p6799
aS'and'
p6800
aS'and'
p6801
ag5101
aS'cannot'
p6802
aS'have'
p6803
aS'<N>'
p6804
aS'each'
p6805
aS'tear'
p6806
aS'once'
p6807
ag1863
aS'made'
p6808
aS'on'
p6809
ag3506
aS'prefer'
p6810
aS'know'
p6811
aS'<N>'
p6812
aS'on'
p6813
aS'longer'
p6814
aS'prefer'
p6815
ag2884
aS'feel'
p6816
aS"do's"
p6817
aS'are'
p6818
aS"don't"
p6819
ag6728
ag1600
aS'<N>'
p6820
aS'<N>'
p6821
aS'the'
p6822
aS'<N>'
p6823
aS'at'
p6824
ag1470
aS'got'
p6825
aS'know'
p6826
aS'<N>'
p6827
aS'<N>'
p6828
aS'the'
p6829
aS'<N>'
p6830
aS'at'
p6831
aS'got'
p6832
aS'got'
p6833
aS'know'
p6834
aS'cut'
p6835
aS'go'
p6836
aS'stay'
p6837
aS'obviously'
p6838
ag5403
aS'again?'
p6839
aS'remember?'
p6840
aS'remember?'
p6841
aS'loved'
p6842
aS'thought'
p6843
aS'completely'
p6844
aS'remember?'
p6845
aS'remember?'
p6846
aS'loved'
p6847
aS'the'
p6848
aS'could'
p6849
aS'would'
p6850
aS'back'
p6851
aS'remember?'
p6852
aS'remember?'
p6853
aS'loved'
p6854
aS'used'
p6855
aS'again?'
p6856
aS'<N>'
p6857
aS'like'
p6858
aS'left'
p6859
ag1584
aS'took'
p6860
aS'<N>'
p6861
aS'off'
p6862
aS'wave'
p6863
aS'wave'
p6864
aS'<N>'
p6865
aS'were'
p6866
aS'<N>'
p6867
aS'before,'
p6868
aS'want'
p6869
aS'thought'
p6870
aS'crawling'
p6871
aS'leave'
p6872
aS'swear'
p6873
aS'can'
p6874
aS'before,'
p6875
aS'want'
p6876
aS'ever'
p6877
aS'cried'
p6878
aS'want'
p6879
aS'love'
p6880
aS'pushed'
p6881
aS'speechless,'
p6882
aS'when'
p6883
aS'when'
p6884
aS'that'
p6885
aS'speechless,'
p6886
aS'when'
p6887
aS'when'
p6888
aS'speechless,'
p6889
aS'speechless,'
p6890
aS'speechless,'
p6891
aS'when'
p6892
aS'when'
p6893
aS'<N>'
p6894
aS'<N>'
p6895
aS'<N>'
p6896
aS'<N>'
p6897
aS'<N>'
p6898
aS'<N>'
p6899
aS'<N>'
p6900
aS'<N>'
p6901
aS'<N>'
p6902
aS'<N>'
p6903
aS'<N>'
p6904
aS'<N>'
p6905
aS'<N>'
p6906
aS'<N>'
p6907
aS'<N>'
p6908
aS'<N>'
p6909
aS'<N>'
p6910
aS'<N>'
p6911
aS'<N>'
p6912
aS'<N>'
p6913
ag2033
aS'now.'
p6914
aS'now.'
p6915
aS'did'
p6916
aS'now.'
p6917
aS'now.'
p6918
aS'now.'
p6919
aS'now.'
p6920
aS'now.'
p6921
aS'now.'
p6922
aS'now.'
p6923
aS'now.'
p6924
aS'never'
p6925
aS'to'
p6926
aS'close?'
p6927
aS'tell'
p6928
aS'never'
p6929
aS'to'
p6930
aS'to'
p6931
ag3432
aS'<N>'
p6932
aS'never'
p6933
aS'never'
p6934
ag2180
aS'<N>'
p6935
aS'never'
p6936
aS'never'
p6937
aS'never'
p6938
aS'never'
p6939
aS'played'
p6940
aS'played'
p6941
aS'look'
p6942
ag3311
aS'never'
p6943
aS'never'
p6944
aS'never'
p6945
aS'never'
p6946
aS'played'
p6947
aS'never'
p6948
aS'never'
p6949
aS'played'
p6950
aS'like'
p6951
aS'remember?'
p6952
ag5280
ag1279
aS"shouldn't"
p6953
aS'heard'
p6954
aS'heard'
p6955
ag3271
aS'rose'
p6956
aS'kissed'
p6957
ag263
aS'<N>'
p6958
aS'play'
p6959
aS'<N>'
p6960
aS'here'
p6961
aS'<N>'
p6962
aS'play'
p6963
aS'caught'
p6964
aS'<N>'
p6965
aS'found'
p6966
aS'things'
p6967
aS'so'
p6968
aS'to'
p6969
aS'<N>'
p6970
aS'too'
p6971
aS'said,'
p6972
aS'<N>'
p6973
aS'too'
p6974
aS'said,'
p6975
aS'<N>'
p6976
aS'<N>'
p6977
aS'said,'
p6978
aS'<N>'
p6979
aS'too'
p6980
aS'said,'
p6981
aS'everything'
p6982
ag1266
aS'got'
p6983
aS'walk'
p6984
aS'see'
p6985
aS'loved'
p6986
aS'knew,'
p6987
aS'always'
p6988
aS'close'
p6989
aS'to'
p6990
aS'the'
p6991
aS'think'
p6992
aS'gave'
p6993
aS'(ooh)'
p6994
aS'<N>'
p6995
ag5034
aS'close'
p6996
aS'to'
p6997
aS'the'
p6998
aS'think'
p6999
aS'gave'
p7000
aS'close'
p7001
aS'to'
p7002
aS'the'
p7003
aS'think'
p7004
aS'gave'
p7005
aS'love'
p7006
aS"don't"
p7007
aS"won't"
p7008
aS"won't"
p7009
aS'love'
p7010
aS"don't"
p7011
aS"don't"
p7012
aS"don't"
p7013
aS'love'
p7014
aS"don't"
p7015
aS"won't"
p7016
aS"won't"
p7017
aS'love'
p7018
aS"don't"
p7019
aS"don't"
p7020
aS'came'
p7021
ag5245
aS'comfort'
p7022
aS'restore'
p7023
aS'pray'
p7024
aS"don't"
p7025
aS'ever'
p7026
aS'<N>'
p7027
aS'pray'
p7028
aS'can'
p7029
aS'go'
p7030
aS'see'
p7031
asg3123
(lp7032
S'<N>'
p7033
asS'drift'
p7034
(lp7035
S'into'
p7036
asS'fresh'
p7037
(lp7038
S'<N>'
p7039
aS'<N>'
p7040
asS'is?'
p7041
(lp7042
S'<N>'
p7043
aS'<N>'
p7044
aS'<N>'
p7045
aS'<N>'
p7046
aS'<N>'
p7047
aS'<N>'
p7048
aS'<N>'
p7049
aS'<N>'
p7050
aS'<N>'
p7051
aS'<N>'
p7052
asg1752
(lp7053
S'for'
p7054
asS'fool.'
p7055
(lp7056
S'<N>'
p7057
aS'<N>'
p7058
aS'<N>'
p7059
aS'<N>'
p7060
aS'<N>'
p7061
asS'Yeah'
p7062
(lp7063
S'<N>'
p7064
aS'<N>'
p7065
aS'everybody'
p7066
aS"that's"
p7067
aS"that's"
p7068
aS'<N>'
p7069
asg3775
(lp7070
S'<N>'
p7071
asS'starting'
p7072
(lp7073
S'to'
p7074
aS'in'
p7075
aS'in'
p7076
asS'all'
p7077
(lp7078
S'you'
p7079
aS'of'
p7080
aS'you'
p7081
aS'of'
p7082
aS'you'
p7083
aS'of'
p7084
aS'in'
p7085
ag1995
aS'the'
p7086
aS'out'
p7087
aS'in'
p7088
aS'<N>'
p7089
aS'<N>'
p7090
aS'is'
p7091
aS'around'
p7092
aS'the'
p7093
aS'alone'
p7094
aS'control'
p7095
aS'the'
p7096
aS'control'
p7097
aS'alone'
p7098
aS'<N>'
p7099
aS'<N>'
p7100
aS'<N>'
p7101
aS'<N>'
p7102
aS'<N>'
p7103
aS'<N>'
p7104
aS'<N>'
p7105
aS'<N>'
p7106
aS'<N>'
p7107
aS'<N>'
p7108
aS'my'
p7109
aS'with'
p7110
aS'<N>'
p7111
aS'<N>'
p7112
aS'with'
p7113
aS'<N>'
p7114
aS'<N>'
p7115
aS'with'
p7116
aS'with'
p7117
aS'<N>'
p7118
aS'<N>'
p7119
aS'<N>'
p7120
aS'together'
p7121
aS'together'
p7122
aS'together'
p7123
aS'together'
p7124
aS'together'
p7125
aS'together'
p7126
asS'forget'
p7127
(lp7128
S'me,'
p7129
aS'me,'
p7130
aS'me,'
p7131
aS'me,'
p7132
asS"sittin'"
p7133
(lp7134
S'on'
p7135
aS'on'
p7136
asg4283
(lp7137
S"I'm"
p7138
asg5525
(lp7139
S'desire.'
p7140
asS'dollar'
p7141
(lp7142
S'to'
p7143
asS'Take'
p7144
(lp7145
S"whatever's"
p7146
aS'it'
p7147
aS'it'
p7148
aS'it'
p7149
aS'it'
p7150
aS'it'
p7151
aS'it'
p7152
aS'it'
p7153
aS'it'
p7154
aS'it'
p7155
aS'it'
p7156
aS'it'
p7157
asg3457
(lp7158
S'inside'
p7159
asg6740
(lp7160
g4554
ag3420
ag3389
aS'me'
p7161
ag3703
aS'play'
p7162
aS'do'
p7163
ag2547
ag6477
aS'me'
p7164
aS'be'
p7165
aS'play'
p7166
aS'let'
p7167
aS'think'
p7168
aS'look'
p7169
aS'you'
p7170
aS'do'
p7171
ag4453
aS'find'
p7172
aS'look'
p7173
aS'be'
p7174
aS'run'
p7175
aS'stop'
p7176
aS'you.'
p7177
aS'chase'
p7178
ag2137
aS'say'
p7179
ag3308
aS'get'
p7180
aS'feel'
p7181
aS'understand'
p7182
aS'change'
p7183
aS'doubt'
p7184
aS'taste'
p7185
aS'say'
p7186
aS'see'
p7187
ag539
aS'the'
p7188
ag6343
aS'you'
p7189
aS'act'
p7190
aS'act'
p7191
aS'my'
p7192
ag6232
aS'leave'
p7193
ag5138
aS'link'
p7194
aS'my'
p7195
aS'stone'
p7196
aS'be'
p7197
aS'be'
p7198
aS'sit'
p7199
aS'make'
p7200
aS'make'
p7201
aS'be'
p7202
aS'be'
p7203
aS'sit'
p7204
aS'stay'
p7205
ag3470
aS'make'
p7206
aS'make'
p7207
aS'make'
p7208
aS'make'
p7209
aS'the'
p7210
aS'see'
p7211
aS'feel'
p7212
aS'begin'
p7213
aS'be'
p7214
aS'be'
p7215
aS'be'
p7216
aS'be'
p7217
aS'feel'
p7218
aS'be'
p7219
aS'be'
p7220
aS'be'
p7221
aS'find'
p7222
ag5142
aS'me,'
p7223
aS'love'
p7224
aS'take'
p7225
aS'take'
p7226
aS'step'
p7227
aS'the'
p7228
aS'take'
p7229
aS'take'
p7230
aS'dust'
p7231
aS'take'
p7232
aS'take'
p7233
aS'the'
p7234
aS'hold'
p7235
aS'take'
p7236
aS'take'
p7237
aS'take'
p7238
aS'take'
p7239
aS'your'
p7240
aS'my'
p7241
aS'your'
p7242
aS'where'
p7243
aS'your'
p7244
aS'be'
p7245
aS'my'
p7246
aS'me'
p7247
aS'love'
p7248
aS'you,'
p7249
aS'love'
p7250
aS'you,'
p7251
aS'the'
p7252
aS'learn,'
p7253
aS'love'
p7254
aS'you,'
p7255
aS'love'
p7256
aS'you,'
p7257
aS'love'
p7258
aS'you,'
p7259
aS'love'
p7260
aS'you.'
p7261
aS'Birmingham'
p7262
ag3609
aS'my'
p7263
aS'that'
p7264
ag4932
aS'Birmingham'
p7265
aS'Louisiana'
p7266
aS'let'
p7267
aS'hold'
p7268
aS'hold'
p7269
aS'let'
p7270
aS'hold'
p7271
aS'let'
p7272
aS'hold'
p7273
aS'the'
p7274
aS'be'
p7275
aS'the'
p7276
aS'find'
p7277
aS'the'
p7278
aS'the'
p7279
aS'love'
p7280
aS'the'
p7281
aS'the'
p7282
ag4226
ag1467
aS'claim'
p7283
aS'your'
p7284
aS'you'
p7285
aS'the'
p7286
aS'you'
p7287
aS'the'
p7288
aS'the'
p7289
aS'the'
p7290
aS'the'
p7291
aS'you.'
p7292
aS'hold'
p7293
aS'turn'
p7294
aS'turn'
p7295
aS'<N>'
p7296
aS'start'
p7297
aS'hurt'
p7298
aS'just'
p7299
aS'say'
p7300
aS'turning'
p7301
aS'leave'
p7302
aS'hurt'
p7303
aS'just'
p7304
aS'say'
p7305
aS'turning'
p7306
aS'hurt'
p7307
aS'just'
p7308
aS'say'
p7309
aS'turning'
p7310
aS'be'
p7311
aS'say'
p7312
aS'kiss'
p7313
aS'say'
p7314
aS'kiss'
p7315
aS'say'
p7316
aS'kiss'
p7317
aS'ten'
p7318
asg6632
(lp7319
S'off'
p7320
aS'off'
p7321
aS'off'
p7322
aS'<N>'
p7323
asg658
(lp7324
g373
asg452
(lp7325
S'in'
p7326
asg4286
(lp7327
S'cautious,'
p7328
asS"I'd"
p7329
(lp7330
S'like'
p7331
aS'always'
p7332
aS'go'
p7333
aS'go'
p7334
aS'go'
p7335
aS'be'
p7336
aS'always'
p7337
aS'crumble'
p7338
aS'hoped'
p7339
asg6388
(lp7340
S'<N>'
p7341
asS'fall'
p7342
(lp7343
S'<N>'
p7344
aS'back'
p7345
aS'<N>'
p7346
aS'<N>'
p7347
ag3018
aS'short'
p7348
aS'<N>'
p7349
aS'<N>'
p7350
aS'<N>'
p7351
aS'<N>'
p7352
aS'<N>'
p7353
aS'<N>'
p7354
aS'<N>'
p7355
asS"I'm"
p7356
(lp7357
g6557
ag7077
aS'the'
p7358
aS'taking'
p7359
aS'trying'
p7360
aS'still'
p7361
aS'all'
p7362
aS'the'
p7363
ag4055
ag7072
ag5131
ag4155
aS'meant'
p7364
aS'in'
p7365
aS'too'
p7366
aS'hoping'
p7367
ag2970
aS'too'
p7368
aS'bored'
p7369
ag4961
aS'the'
p7370
aS'the'
p7371
aS'the'
p7372
aS'the'
p7373
aS'standing'
p7374
aS'the'
p7375
aS'the'
p7376
aS'stubborn'
p7377
ag1844
aS'so'
p7378
aS'so'
p7379
aS'stubborn'
p7380
aS'selfish,'
p7381
aS'still'
p7382
ag356
aS'concerned'
p7383
aS'tired'
p7384
aS'concerned'
p7385
aS'on'
p7386
aS'tired'
p7387
aS'concerned'
p7388
aS"movin'"
p7389
aS"movin'"
p7390
aS"movin'"
p7391
aS"movin'"
p7392
aS"movin'"
p7393
ag5188
aS'tired'
p7394
aS'tired'
p7395
aS'tired'
p7396
aS'tired'
p7397
aS'tired'
p7398
aS'willing'
p7399
aS'willing'
p7400
aS'so'
p7401
aS'willing'
p7402
aS'willing'
p7403
aS'willing'
p7404
aS'willing'
p7405
ag5054
aS'just'
p7406
aS'willing'
p7407
aS'in'
p7408
aS'alone'
p7409
aS'alone'
p7410
aS'alone'
p7411
aS'alone'
p7412
aS'alone'
p7413
aS'alone'
p7414
aS'all'
p7415
ag427
aS'all'
p7416
ag427
aS'scared,'
p7417
aS'worthy'
p7418
aS'the'
p7419
aS'scared'
p7420
aS'worthy'
p7421
aS'the'
p7422
aS'worthy'
p7423
aS'the'
p7424
aS'the'
p7425
aS'gonna'
p7426
aS'guessing'
p7427
aS'bringing'
p7428
aS'cold'
p7429
aS'the'
p7430
aS'leaving'
p7431
aS'walking'
p7432
aS'gonna'
p7433
aS'walking'
p7434
aS'walking'
p7435
asS"Don't"
p7436
(lp7437
S'need'
p7438
aS'need'
p7439
aS'go'
p7440
ag1169
aS'you'
p7441
aS'you'
p7442
aS'you'
p7443
aS'underestimate'
p7444
ag7127
aS'forget'
p7445
aS'forget'
p7446
aS'forget'
p7447
aS'look'
p7448
aS'look'
p7449
aS'look'
p7450
aS'look'
p7451
aS'patronize'
p7452
aS'patronize'
p7453
aS'feel'
p7454
asg6445
(lp7455
S'Bless'
p7456
asg1568
(lp7457
S'<N>'
p7458
asS'undone'
p7459
(lp7460
S'<N>'
p7461
asg7318
(lp7462
S'<N>'
p7463
asS'Should'
p7464
(lp7465
g373
ag373
ag373
ag373
ag373
ag373
ag373
asg2683
(lp7466
S'<N>'
p7467
aS'and'
p7468
aS'and'
p7469
asg6490
(lp7470
S'of'
p7471
asS'Only'
p7472
(lp7473
S'yesterday'
p7474
asS'Ticking'
p7475
(lp7476
S'by'
p7477
asS'Gave'
p7478
(lp7479
S'you'
p7480
aS'you'
p7481
asS'what'
p7482
(lp7483
g373
aS"I'm"
p7484
aS'has'
p7485
aS'it'
p7486
aS'<N>'
p7487
aS'<N>'
p7488
aS'<N>'
p7489
ag7041
aS'is?'
p7490
aS'is?'
p7491
aS'is?'
p7492
aS'is?'
p7493
aS'is?'
p7494
aS'is?'
p7495
aS'is?'
p7496
aS'is?'
p7497
aS'is?'
p7498
aS'you'
p7499
aS'you'
p7500
aS'you'
p7501
aS"we're"
p7502
aS'is'
p7503
asS'Tried'
p7504
(lp7505
S'my'
p7506
asg2682
(lp7507
S'<N>'
p7508
aS'<N>'
p7509
aS'<N>'
p7510
aS'<N>'
p7511
asg4465
(lp7512
S'says:'
p7513
asS'learned'
p7514
(lp7515
S'it)'
p7516
aS'it)'
p7517
aS'it)'
p7518
aS'it)'
p7519
asg4496
(lp7520
S'Loves'
p7521
asg3122
(lp7522
S'<N>'
p7523
aS'<N>'
p7524
aS'late'
p7525
aS'<N>'
p7526
aS'<N>'
p7527
asg1249
(lp7528
S'<N>'
p7529
asg6245
(lp7530
S'yaa'
p7531
asS'ahead'
p7532
(lp7533
S'and'
p7534
aS'and'
p7535
asg2710
(lp7536
S'<N>'
p7537
asS"Waitin'"
p7538
(lp7539
S'as'
p7540
asS'tutting'
p7541
(lp7542
S'my'
p7543
asg5835
(lp7544
S'<N>'
p7545
asg5579
(lp7546
g1246
aS'<N>'
p7547
asg6001
(lp7548
S'worlds'
p7549
aS'feet'
p7550
asS'taken'
p7551
(lp7552
S'me'
p7553
asg1113
(lp7554
S'<N>'
p7555
aS'<N>'
p7556
aS'eager'
p7557
aS'<N>'
p7558
ag373
aS'<N>'
p7559
ag373
aS'time,'
p7560
ag4677
aS'night,'
p7561
aS'than'
p7562
aS'<N>'
p7563
aS'<N>'
p7564
aS'<N>'
p7565
asg349
(lp7566
S'go'
p7567
asg2716
(lp7568
S'<N>'
p7569
aS'<N>'
p7570
aS'<N>'
p7571
aS'<N>'
p7572
aS'(woah)'
p7573
aS'<N>'
p7574
asg3189
(lp7575
S'it'
p7576
aS'<N>'
p7577
aS'what'
p7578
asS'Bless'
p7579
(lp7580
S'your'
p7581
aS'your'
p7582
asS'So'
p7583
(lp7584
g5122
ag4565
aS'desperately'
p7585
ag1857
aS'that'
p7586
aS'that'
p7587
aS'that'
p7588
aS'that'
p7589
aS'scratch'
p7590
ag2518
ag373
aS'wipe'
p7591
aS'wipe'
p7592
aS'wipe'
p7593
aS'if'
p7594
aS'if'
p7595
aS"that's"
p7596
aS"that's"
p7597
ag4996
ag373
aS"I'll"
p7598
aS"I'll"
p7599
aS"I'll"
p7600
aS'stand'
p7601
aS'stand'
p7602
aS'stand'
p7603
ag373
aS'come'
p7604
aS'come'
p7605
ag373
aS'come'
p7606
aS'is'
p7607
ag373
aS'I,'
p7608
ag373
aS'empty'
p7609
ag3582
asS'known'
p7610
(lp7611
S'it'
p7612
aS'each'
p7613
aS'you'
p7614
aS'this,'
p7615
aS'each'
p7616
aS'you'
p7617
aS'<N>'
p7618
aS'<N>'
p7619
aS'<N>'
p7620
aS'how'
p7621
asg1307
(lp7622
S'myself'
p7623
asg3724
(lp7624
S'to'
p7625
asg6301
(lp7626
S'<N>'
p7627
aS'<N>'
p7628
asS'strain'
p7629
(lp7630
S'<N>'
p7631
asg693
(lp7632
S'<N>'
p7633
asg3771
(lp7634
S'down,'
p7635
asS'Your'
p7636
(lp7637
S'teasing'
p7638
aS'teasing'
p7639
aS'teasing'
p7640
aS'grandsons'
p7641
asg7377
(lp7642
S'and'
p7643
ag2605
aS'and'
p7644
aS"'cept"
p7645
asg2671
(lp7646
S'you'
p7647
asg6881
(lp7648
S'me'
p7649
asg2551
(lp7650
S'<N>'
p7651
asS'Cause'
p7652
(lp7653
S'in'
p7654
aS"there's"
p7655
aS"there's"
p7656
ag373
ag373
aS'he'
p7657
aS'you'
p7658
ag373
ag373
ag373
ag373
asg5958
(lp7659
S'hurt'
p7660
asg7022
(lp7661
S'me'
p7662
asg4724
(lp7663
S'behind,'
p7664
asS'tried'
p7665
(lp7666
S'my'
p7667
asg1469
(lp7668
g4494
asS'bitterness,'
p7669
(lp7670
S'<N>'
p7671
aS'<N>'
p7672
asS'lighting'
p7673
(lp7674
S'me'
p7675
asg914
(lp7676
g6135
asS'(Do'
p7677
(lp7678
g1832
asg6635
(lp7679
S'<N>'
p7680
asg427
(lp7681
g3332
ag4033
aS'temporary'
p7682
aS'routine'
p7683
ag3794
aS'way'
p7684
aS'clue'
p7685
aS'temporary'
p7686
aS'routine'
p7687
aS'filler'
p7688
aS'way'
p7689
aS'clue'
p7690
aS'waste'
p7691
aS'waste'
p7692
aS'waste'
p7693
aS'crumbling'
p7694
ag6052
ag3473
aS'surprise'
p7695
aS'lie'
p7696
aS'kiss'
p7697
ag659
ag4468
aS'single'
p7698
ag6157
ag4430
aS'year'
p7699
aS'game'
p7700
ag7629
ag4223
aS'lot'
p7701
aS'lot'
p7702
aS'single'
p7703
ag4010
ag7669
ag4710
aS'fickle'
p7704
aS'bitterness,'
p7705
aS'wandering'
p7706
aS'heaviness'
p7707
aS'single'
p7708
ag5905
aS'kiss'
p7709
aS'fool'
p7710
ag1758
ag248
aS'boy'
p7711
aS'boy'
p7712
aS'boy'
p7713
aS'child'
p7714
aS'wayward'
p7715
aS'mind'
p7716
ag1462
aS'jail'
p7717
aS'forty'
p7718
aS'jail'
p7719
ag4413
aS'quarter'
p7720
aS'little'
p7721
aS'quarter'
p7722
aS'little'
p7723
aS'chance'
p7724
aS'chance'
p7725
aS'chance'
p7726
aS'chance'
p7727
aS'fire'
p7728
ag1216
aS'fire'
p7729
aS'fever'
p7730
aS'home'
p7731
ag3216
ag1520
aS'fool'
p7732
aS'fool'
p7733
aS'story'
p7734
aS'side'
p7735
aS'side'
p7736
aS'girl'
p7737
ag5995
ag3369
aS'hundred'
p7738
aS'great'
p7739
aS'time'
p7740
aS'time'
p7741
aS'thread'
p7742
aS'time'
p7743
asg2419
(lp7744
S'skirts,'
p7745
aS'each'
p7746
asS'coat'
p7747
(lp7748
S'for'
p7749
asg4726
(lp7750
S'my'
p7751
asS'Promise'
p7752
(lp7753
S"I'm"
p7754
aS'this'
p7755
aS'this,'
p7756
aS'this,'
p7757
aS'this'
p7758
aS'this,'
p7759
aS'this,'
p7760
aS'this'
p7761
aS'this,'
p7762
aS'this,'
p7763
asg4121
(lp7764
S'up'
p7765
asS'Fill'
p7766
(lp7767
S'me'
p7768
aS'me'
p7769
asS'What'
p7770
(lp7771
g6652
aS"I'll"
p7772
aS'if'
p7773
aS'you'
p7774
asg5920
(lp7775
S'myself'
p7776
aS'believe'
p7777
aS'myself,'
p7778
aS'feeling'
p7779
aS'feeling'
p7780
aS'myself'
p7781
aS'you'
p7782
asg2223
(lp7783
g1449
aS'mean'
p7784
aS'make'
p7785
aS'see'
p7786
aS'get'
p7787
aS'know'
p7788
ag5431
aS'get'
p7789
aS'pay'
p7790
aS'pay'
p7791
aS'seem'
p7792
aS'want'
p7793
aS'want'
p7794
aS'get'
p7795
aS'get'
p7796
aS'get'
p7797
aS'get'
p7798
aS'get'
p7799
aS'get'
p7800
aS'you'
p7801
aS'you'
p7802
aS'you'
p7803
aS'know'
p7804
aS'need'
p7805
aS'need'
p7806
aS'need'
p7807
aS'know'
p7808
aS'know'
p7809
aS'know'
p7810
aS'know'
p7811
aS'know'
p7812
aS'you'
p7813
aS'mean'
p7814
aS'mean'
p7815
aS'<N>'
p7816
aS'<N>'
p7817
aS'<N>'
p7818
aS'feel'
p7819
aS'<N>'
p7820
aS'<N>'
p7821
ag308
aS'care'
p7822
aS'know'
p7823
aS'understand'
p7824
aS'understand'
p7825
aS'understand'
p7826
aS'care'
p7827
aS'let'
p7828
asS'soon'
p7829
(lp7830
S'<N>'
p7831
asg2091
(lp7832
S'people'
p7833
asS'through'
p7834
(lp7835
S'<N>'
p7836
aS'<N>'
p7837
aS'me'
p7838
aS'the'
p7839
aS'the'
p7840
aS'every'
p7841
aS'the'
p7842
asg4703
(lp7843
S'in'
p7844
asg6002
(lp7845
S'done'
p7846
aS'done'
p7847
asS'pavements?'
p7848
(lp7849
S'<N>'
p7850
asg6882
(lp7851
S'<N>'
p7852
aS'<N>'
p7853
aS'<N>'
p7854
aS'<N>'
p7855
aS'<N>'
p7856
asg7525
(lp7857
S'<N>'
p7858
asg5460
(lp7859
S'hear'
p7860
asg6790
(lp7861
S'made'
p7862
asg7444
(lp7863
S'the'
p7864
asg6254
(lp7865
S'<N>'
p7866
aS'for'
p7867
aS'out'
p7868
aS'out'
p7869
asg2182
(lp7870
S'to'
p7871
aS'to'
p7872
aS'with'
p7873
aS'it'
p7874
aS'<N>'
p7875
aS"don't"
p7876
aS'<N>'
p7877
aS'<N>'
p7878
aS'<N>'
p7879
aS'<N>'
p7880
aS'<N>'
p7881
aS'<N>'
p7882
asS'good'
p7883
(lp7884
S'when'
p7885
aS'to'
p7886
aS'to'
p7887
asg3748
(lp7888
S'different,'
p7889
aS'different,'
p7890
aS'different,'
p7891
asg7516
(lp7892
S'<N>'
p7893
aS'<N>'
p7894
aS'<N>'
p7895
aS'<N>'
p7896
asS'woulda'
p7897
(lp7898
g252
ag4570
aS'run'
p7899
aS'seen'
p7900
aS'gone'
p7901
aS'took'
p7902
ag2020
aS'hitch'
p7903
aS'caught'
p7904
aS'loaded'
p7905
asS'it?'
p7906
(lp7907
S'<N>'
p7908
asg4328
(lp7909
S'against'
p7910
aS'without'
p7911
aS'against'
p7912
aS'without'
p7913
asg3334
(lp7914
g456
aS'never'
p7915
aS'never'
p7916
aS'got'
p7917
ag6165
aS'been'
p7918
aS'got'
p7919
asg5220
(lp7920
S'in'
p7921
asg7585
(lp7922
g373
asS'always'
p7923
(lp7924
S'been'
p7925
ag4220
aS'softening'
p7926
aS'softening'
p7927
aS'kiss'
p7928
aS'love'
p7929
aS'love'
p7930
aS'love'
p7931
aS'love'
p7932
aS'love'
p7933
aS'love'
p7934
aS'love'
p7935
aS'love'
p7936
aS'love'
p7937
aS'love'
p7938
aS'love'
p7939
aS'love'
p7940
aS'love'
p7941
ag1197
ag1193
aS'win,'
p7942
aS'win.'
p7943
aS'say'
p7944
asg6692
(lp7945
S'but'
p7946
aS'but'
p7947
aS'<N>'
p7948
aS'<N>'
p7949
aS'it'
p7950
aS'it'
p7951
aS'<N>'
p7952
aS'<N>'
p7953
asg293
(lp7954
S'<N>'
p7955
aS'your'
p7956
asS'someone'
p7957
(lp7958
g1871
aS'by'
p7959
aS'like'
p7960
aS'like'
p7961
aS'like'
p7962
aS'like'
p7963
asS'Thanks'
p7964
(lp7965
S'to'
p7966
asg5885
(lp7967
S'before'
p7968
aS'before'
p7969
aS'before'
p7970
asg5666
(lp7971
g427
ag427
ag427
ag427
aS'<N>'
p7972
asg5392
(lp7973
S'like'
p7974
asS"isn't"
p7975
(lp7976
g427
ag427
ag2173
aS'over.'
p7977
asg1626
(lp7978
S'hearted'
p7979
asS'harm'
p7980
(lp7981
S'<N>'
p7982
asg4735
(lp7983
S'agrees'
p7984
aS'agrees'
p7985
aS'agrees'
p7986
asS'house'
p7987
(lp7988
S'door'
p7989
aS'door'
p7990
asg2226
(lp7991
S'to'
p7992
aS'to'
p7993
ag883
aS'work'
p7994
aS'work'
p7995
aS'and'
p7996
aS'as'
p7997
asS'idea'
p7998
(lp7999
S'of'
p8000
asS'Waiting'
p8001
(lp8002
S'for'
p8003
aS'for'
p8004
asS'Build'
p8005
(lp8006
S'your'
p8007
asg4654
(lp8008
S'what'
p8009
ag7906
asg1325
(lp8010
S'perfect'
p8011
asg1718
(lp8012
S'<N>'
p8013
aS'<N>'
p8014
asS'lipstick'
p8015
(lp8016
S'<N>'
p8017
asg3709
(lp8018
g5290
asg2712
(lp8019
S'of'
p8020
asg4731
(lp8021
S'<N>'
p8022
aS'<N>'
p8023
aS'<N>'
p8024
asS'forgive'
p8025
(lp8026
S'you'
p8027
aS'you'
p8028
aS'me'
p8029
aS'me'
p8030
aS'your'
p8031
aS'your'
p8032
asS'reason'
p8033
(lp8034
S'you'
p8035
aS'you'
p8036
aS'you'
p8037
aS'that'
p8038
asg5174
(lp8039
S'<N>'
p8040
aS'<N>'
p8041
asg742
(lp8042
S"you're"
p8043
aS"you're"
p8044
aS"you're"
p8045
aS"you're"
p8046
asS'put'
p8047
(lp8048
S'my'
p8049
aS'my'
p8050
aS'my'
p8051
aS'my'
p8052
aS'my'
p8053
aS'my'
p8054
asg2864
(lp8055
S'there'
p8056
asg7742
(lp8057
S"we're"
p8058
asS'People'
p8059
(lp8060
S'say'
p8061
asg6786
(lp8062
S'Is'
p8063
asg970
(lp8064
S'so'
p8065
asg6817
(lp8066
g427
asg6741
(lp8067
g427
ag427
ag427
aS'<N>'
p8068
aS'like'
p8069
aS'like'
p8070
aS'again.'
p8071
aS'my'
p8072
aS'my'
p8073
aS'my'
p8074
aS'my'
p8075
aS'my'
p8076
aS'my'
p8077
aS'my'
p8078
aS'<N>'
p8079
aS'the'
p8080
aS'things'
p8081
aS'like'
p8082
aS'like'
p8083
aS'like'
p8084
aS'like'
p8085
aS'like'
p8086
aS'like'
p8087
aS'nothing'
p8088
aS'<N>'
p8089
aS'the'
p8090
aS'<N>'
p8091
aS'<N>'
p8092
aS'the'
p8093
aS'so'
p8094
aS'left'
p8095
aS'so'
p8096
aS'so'
p8097
aS'left'
p8098
aS'so'
p8099
aS'left'
p8100
asS'Reminded'
p8101
(lp8102
S'by'
p8103
asg922
(lp8104
S'<N>'
p8105
aS"there's"
p8106
aS'<N>'
p8107
aS'<N>'
p8108
asg7846
(lp8109
S'<N>'
p8110
aS'<N>'
p8111
aS'<N>'
p8112
aS'<N>'
p8113
aS'<N>'
p8114
aS'<N>'
p8115
aS'<N>'
p8116
asg3834
(lp8117
S'become'
p8118
asg2764
(lp8119
S'went'
p8120
aS'to'
p8121
aS'that'
p8122
asg818
(lp8123
S'<N>'
p8124
aS'<N>'
p8125
asS'(Tears'
p8126
(lp8127
S'are'
p8128
aS'are'
p8129
aS'are'
p8130
aS'are'
p8131
aS'are'
p8132
aS'are'
p8133
aS'are'
p8134
aS'are'
p8135
aS'are'
p8136
aS'are'
p8137
aS'are'
p8138
asg2688
(lp8139
S'and'
p8140
aS'when'
p8141
aS'the'
p8142
ag373
ag373
asg6840
(lp8143
S'<N>'
p8144
aS'<N>'
p8145
aS'<N>'
p8146
aS'<N>'
p8147
aS'<N>'
p8148
aS'<N>'
p8149
aS'<N>'
p8150
asS'station'
p8151
(lp8152
S'<N>'
p8153
asg7738
(lp8154
S'storms'
p8155
asS'treasured'
p8156
(lp8157
S'gold'
p8158
asS'behind'
p8159
(lp8160
S'his'
p8161
aS'<N>'
p8162
aS'<N>'
p8163
ag427
ag427
asg2572
(lp8164
S'that'
p8165
aS'you'
p8166
asS'grace'
p8167
(lp8168
S'me'
p8169
aS'me'
p8170
aS'me'
p8171
aS'me'
p8172
aS'<N>'
p8173
aS'<N>'
p8174
aS'<N>'
p8175
asg2470
(lp8176
S'and'
p8177
asg1214
(lp8178
S'taking'
p8179
asg5457
(lp8180
S'to'
p8181
asg912
(lp8182
S'<N>'
p8183
asg993
(lp8184
S'<N>'
p8185
aS'<N>'
p8186
asg1011
(lp8187
S'<N>'
p8188
asS'God'
p8189
(lp8190
S'only'
p8191
aS'only'
p8192
asg4793
(lp8193
S'me'
p8194
asg7696
(lp8195
S'<N>'
p8196
aS'<N>'
p8197
asg5411
(lp8198
S'with'
p8199
asg5477
(lp8200
S'myself'
p8201
aS'me'
p8202
asS'With'
p8203
(lp8204
S'his'
p8205
aS'eyes'
p8206
aS'the'
p8207
aS'the'
p8208
aS'my'
p8209
aS'my'
p8210
aS'my'
p8211
aS'my'
p8212
aS'my'
p8213
aS'my'
p8214
aS'my'
p8215
asg7162
(lp8216
S'me'
p8217
aS'me'
p8218
aS'the'
p8219
aS'<N>'
p8220
aS'<N>'
p8221
aS'<N>'
p8222
asg2805
(lp8223
S'of'
p8224
asg6444
(lp8225
S'<N>'
p8226
asg6405
(lp8227
g3460
asS"'cause"
p8228
(lp8229
S'it'
p8230
aS"I've"
p8231
ag373
ag373
aS'you'
p8232
asg1938
(lp8233
S'that'
p8234
aS'like'
p8235
aS'back'
p8236
aS'back'
p8237
aS'back'
p8238
aS'back'
p8239
aS'back'
p8240
aS'back'
p8241
aS'will'
p8242
aS'at'
p8243
aS'but'
p8244
aS'but'
p8245
aS'but'
p8246
aS'but'
p8247
aS'<N>'
p8248
asS'The'
p8249
(lp8250
S'one'
p8251
ag564
ag5028
aS'other'
p8252
ag8033
aS'more'
p8253
aS'reason'
p8254
aS'reason'
p8255
aS'morning'
p8256
aS'morning'
p8257
aS'heavens'
p8258
aS'heavens'
p8259
aS'scars'
p8260
aS'scars'
p8261
aS'scars'
p8262
aS'scars'
p8263
aS'love'
p8264
asg2383
(lp8265
S'<N>'
p8266
aS'<N>'
p8267
asg3434
(lp8268
S'<N>'
p8269
asS'sometimes'
p8270
(lp8271
S'it'
p8272
aS'it'
p8273
aS'it'
p8274
aS'it'
p8275
aS'it'
p8276
aS'it'
p8277
asg4000
(lp8278
S'me'
p8279
aS'me'
p8280
aS'me'
p8281
aS'me'
p8282
asg6664
(lp8283
S'again'
p8284
asS'D\xc3\xa9ployer'
p8285
(lp8286
S'les'
p8287
aS'les'
p8288
asS'Singing'
p8289
(lp8290
S'out'
p8291
asg4354
(lp8292
S'still'
p8293
aS'still'
p8294
asg8158
(lp8295
S'(woah)'
p8296
asS"You're"
p8297
(lp8298
S'just'
p8299
aS'just'
p8300
aS'the'
p8301
aS'so'
p8302
aS'so'
p8303
aS'the'
p8304
aS'the'
p8305
asg2061
(lp8306
S'on'
p8307
asg8258
(lp8308
S'cried,'
p8309
aS'cried,'
p8310
asg5463
(lp8311
S'it'
p8312
ag5387
aS'myself'
p8313
aS'<N>'
p8314
aS'him'
p8315
aS'him'
p8316
aS'myself'
p8317
aS'<N>'
p8318
aS'the'
p8319
aS'<N>'
p8320
aS'what'
p8321
aS'someone'
p8322
aS'someone'
p8323
aS'someone'
p8324
aS'someone'
p8325
asS'cried'
p8326
(lp8327
S'my'
p8328
aS'my'
p8329
aS'my'
p8330
aS'<N>'
p8331
aS'<N>'
p8332
aS'<N>'
p8333
aS'<N>'
p8334
aS'<N>'
p8335
asg4814
(lp8336
S'apart'
p8337
asS'his'
p8338
(lp8339
g4434
aS'hands'
p8340
ag6725
ag7747
ag2170
aS'own'
p8341
aS'own'
p8342
aS'own'
p8343
asg995
(lp8344
S'so'
p8345
asg2308
(lp8346
S'to'
p8347
asS'<N>'
p8348
(lp8349
g3945
aS"It's"
p8350
ag1990
ag7356
ag7329
aS'Say'
p8351
ag1
aS'This'
p8352
aS'And'
p8353
ag1670
ag5299
aS'Like'
p8354
ag1
aS'You'
p8355
aS'This'
p8356
ag8297
ag6676
ag1
ag4210
ag5908
ag7770
aS"I'm"
p8357
aS'And'
p8358
aS'And'
p8359
aS"I'm"
p8360
ag1
ag373
aS'And'
p8361
aS'Then'
p8362
aS'But'
p8363
aS'Like'
p8364
ag1
aS'You'
p8365
aS'This'
p8366
aS"You're"
p8367
aS'How'
p8368
ag1
ag5242
ag373
aS'Seems'
p8369
aS'Like'
p8370
aS'To'
p8371
aS'And'
p8372
ag1
ag3277
aS'And'
p8373
aS'And'
p8374
aS'And'
p8375
ag7436
ag5959
aS"Don't"
p8376
aS'This'
p8377
ag373
aS'But,'
p8378
aS"I'll"
p8379
ag8228
aS'And'
p8380
aS'If'
p8381
ag1
ag2166
ag7464
aS'Or'
p8382
ag4527
aS'Or'
p8383
aS'Even'
p8384
aS'Should'
p8385
aS'Should'
p8386
aS'Or'
p8387
aS'Even'
p8388
ag1
ag373
aS'And'
p8389
ag7538
aS'And'
p8390
ag3010
ag1
aS'[Chorus]'
p8391
aS'Or'
p8392
aS'Or'
p8393
aS'Even'
p8394
aS'Or'
p8395
aS'Even'
p8396
aS'Should'
p8397
ag1
aS'Should'
p8398
aS'Or'
p8399
aS'Even'
p8400
aS'Or'
p8401
aS'Even'
p8402
aS'Should'
p8403
aS'Or'
p8404
aS'Should'
p8405
aS'Ohh'
p8406
ag1
ag1724
aS'And'
p8407
ag7583
aS"Don't"
p8408
ag1614
ag8249
ag1
aS'You'
p8409
ag5350
aS'You'
p8410
aS'Whenever'
p8411
ag1
ag4027
aS'You'
p8412
ag4887
ag3958
aS'You'
p8413
aS"I'm"
p8414
ag1
aS'When'
p8415
aS'Whenever'
p8416
aS'You'
p8417
aS'Whenever'
p8418
ag1
ag4042
ag5073
aS'Even'
p8419
ag3001
ag630
ag1
aS'You'
p8420
aS'Whenever'
p8421
aS'You'
p8422
aS'Whenever'
p8423
ag1
aS'You'
p8424
aS'Whenever'
p8425
aS'You'
p8426
aS'Whenever'
p8427
ag8289
aS'You'
p8428
aS'If'
p8429
ag1
ag450
aS'Wishing'
p8430
ag1826
aS'But'
p8431
ag1
aS'And'
p8432
aS'You'
p8433
aS'And'
p8434
ag1
ag2502
aS'If'
p8435
aS'And'
p8436
ag3648
aS'And'
p8437
ag867
ag1
ag269
ag373
ag373
aS'Send'
p8438
ag1
ag3831
aS"It's"
p8439
ag1766
aS'And'
p8440
ag1
ag373
aS'But'
p8441
aS'The'
p8442
ag1
aS'Pacing'
p8443
ag1257
aS'And'
p8444
aS'Because'
p8445
aS'Crazy'
p8446
ag2046
aS'Soaking'
p8447
ag3219
ag2598
aS'And'
p8448
aS'Like'
p8449
ag1
ag1211
aS'Looks'
p8450
ag5899
aS'He'
p8451
aS'But'
p8452
aS'And'
p8453
ag8203
ag1
aS'You'
p8454
ag8001
aS'And'
p8455
aS'And'
p8456
ag1
aS'Daydreamer'
p8457
aS'With'
p8458
aS'He'
p8459
ag3635
aS'When'
p8460
aS'But'
p8461
ag1529
aS'Then'
p8462
ag1
aS"There's"
p8463
aS'Could'
p8464
aS'What'
p8465
aS'Just'
p8466
ag1
aS'But'
p8467
aS'Waiting'
p8468
aS'And'
p8469
aS'And'
p8470
aS'And'
p8471
aS'Despite'
p8472
ag1532
aS'Because'
p8473
ag1
ag5162
ag373
aS'Try'
p8474
aS"don't"
p8475
aS'Please'
p8476
aS"it's"
p8477
aS'Simply,'
p8478
ag1
aS'This'
p8479
aS'And'
p8480
aS'Then'
p8481
ag5444
ag373
ag1
aS'Forgive'
p8482
aS"I'm"
p8483
aS'Forgive'
p8484
aS'Forgive'
p8485
aS'Forgive'
p8486
aS'Forgive'
p8487
aS'Forgive'
p8488
aS'Forgive'
p8489
aS'Forgive'
p8490
ag4191
aS'And'
p8491
aS'"Is'
p8492
ag4422
ag1
ag5381
ag6367
aS'Round'
p8493
aS'Ooh'
p8494
ag3037
aS'Are'
p8495
aS'Are'
p8496
aS'Are'
p8497
ag1
ag373
ag373
ag373
aS'You'
p8498
aS'Everybody'
p8499
ag1
ag4184
aS'Shows'
p8500
aS'Shows'
p8501
aS'Shows'
p8502
aS'Shows'
p8503
ag1
aS'Round'
p8504
aS'Memories'
p8505
aS'Round'
p8506
aS'Ooh'
p8507
ag7677
ag1
aS'Are'
p8508
aS'Are'
p8509
aS'Are'
p8510
aS'Are'
p8511
aS'Of'
p8512
ag7062
aS'Of'
p8513
aS'Of'
p8514
aS'And'
p8515
ag373
aS'To'
p8516
ag1
aS'When'
p8517
aS'And'
p8518
ag373
aS'To'
p8519
ag1
ag373
aS'But'
p8520
aS"I've"
p8521
ag6362
ag1
aS"I'd"
p8522
aS"I'd"
p8523
aS'No,'
p8524
aS'To'
p8525
ag1
aS'The'
p8526
aS'And'
p8527
ag6488
aS'You'
p8528
ag1
ag373
aS'Nothing'
p8529
ag346
aS'To'
p8530
aS'To'
p8531
ag7144
aS'See'
p8532
aS'See'
p8533
ag2140
aS'No,'
p8534
ag1
aS'Everybody'
p8535
ag5148
aS'And'
p8536
aS'Take'
p8537
aS"There's"
p8538
aS'And'
p8539
aS"There's"
p8540
aS"There's"
p8541
ag1
ag3202
aS'You'
p8542
aS'Yeah'
p8543
aS'See'
p8544
aS'See'
p8545
ag7652
ag1
aS'Everybody'
p8546
aS'That'
p8547
aS'And'
p8548
aS'Take'
p8549
aS"There's"
p8550
aS'And'
p8551
aS"There's"
p8552
aS'Yeah,'
p8553
ag1
aS'Ohhhhh'
p8554
ag1
aS'Yeah'
p8555
aS'That'
p8556
aS'And'
p8557
aS'Take'
p8558
aS"There's"
p8559
aS'And'
p8560
aS'Oh,'
p8561
aS'Cause'
p8562
aS'You'
p8563
aS'You'
p8564
aS'Cause'
p8565
aS"There's"
p8566
aS"There's"
p8567
aS"There's"
p8568
ag1
ag4096
ag5953
ag373
aS'And'
p8569
aS'And'
p8570
aS'Which'
p8571
aS'Without'
p8572
ag1698
ag1
aS'And'
p8573
aS'You'
p8574
ag373
aS"I'm"
p8575
ag1
ag5213
ag373
aS'So'
p8576
aS'But'
p8577
aS'As'
p8578
ag373
aS'Without'
p8579
ag2117
ag1
aS'And'
p8580
aS'You'
p8581
ag373
aS"I'm"
p8582
ag1
aS'Why'
p8583
aS'Whenever'
p8584
aS'You'
p8585
ag1
aS'Well'
p8586
ag373
ag373
aS"I'm"
p8587
ag373
aS'You'
p8588
ag373
ag373
aS'You'
p8589
aS'You'
p8590
ag373
ag4479
aS'But'
p8591
ag1
ag373
aS"I've"
p8592
aS"You're"
p8593
ag373
aS"You're"
p8594
aS"You're"
p8595
aS"You'd"
p8596
ag1
aS'Favouritism'
p8597
ag5949
ag1
aS'Favouritism'
p8598
ag1
aS'You'
p8599
ag373
aS'You'
p8600
ag373
ag373
aS'You'
p8601
aS'You'
p8602
ag373
aS'Walking'
p8603
aS'So'
p8604
aS'And'
p8605
aS'How'
p8606
ag1
aS'Hearts'
p8607
aS'To'
p8608
aS'Then'
p8609
aS'So'
p8610
ag1
ag4093
aS'To'
p8611
aS'Then'
p8612
aS'So'
p8613
ag1
aS'Every'
p8614
aS'With'
p8615
aS'But'
p8616
ag373
ag1
ag5250
aS'To'
p8617
aS'Then'
p8618
aS'So'
p8619
ag1
aS'Our'
p8620
aS'To'
p8621
aS'Then'
p8622
aS'So'
p8623
ag1
aS'You'
p8624
aS'You'
p8625
aS'You'
p8626
aS'You'
p8627
aS'Making'
p8628
aS'Filling'
p8629
ag4194
aS'Ooh'
p8630
ag1
ag4447
aS"I've"
p8631
ag4543
ag373
ag373
ag373
aS'With'
p8632
ag1838
ag1
ag373
aS'And'
p8633
aS'So'
p8634
aS'So'
p8635
ag1
aS'Painting'
p8636
aS'Filling'
p8637
ag1
aS'Painting'
p8638
aS'Filling'
p8639
ag1
ag3455
aS'Fire'
p8640
aS'Ooh'
p8641
ag1738
aS'So'
p8642
ag1
aS'Painting'
p8643
aS'Filling'
p8644
ag1
aS'Painting'
p8645
aS'Filling'
p8646
aS"It's"
p8647
aS'You'
p8648
aS'And'
p8649
aS'When'
p8650
aS'You'
p8651
aS'Who'
p8652
aS"It's"
p8653
ag1
aS"'Cause"
p8654
aS'And'
p8655
aS'As'
p8656
aS'So'
p8657
ag5002
aS"I've"
p8658
aS'And'
p8659
ag1
aS'Who'
p8660
aS'When'
p8661
aS'You'
p8662
aS'And'
p8663
aS'They'
p8664
aS'Is'
p8665
aS'But'
p8666
aS'You'
p8667
ag1
aS'See'
p8668
aS'There'
p8669
aS'As'
p8670
aS'So'
p8671
aS'We'
p8672
aS"I've"
p8673
aS'And'
p8674
ag1
aS'Go'
p8675
aS'To'
p8676
aS"'Cause"
p8677
aS'As'
p8678
aS'When'
p8679
aS'And'
p8680
aS'But'
p8681
aS'On'
p8682
ag1
aS"'Cause"
p8683
aS"It's"
p8684
ag373
aS'Even'
p8685
aS'When'
p8686
aS'You'
p8687
aS'Who'
p8688
aS"It's"
p8689
ag1
aS"'Cause"
p8690
aS'There'
p8691
aS'As'
p8692
aS'So'
p8693
aS'We'
p8694
aS"I've"
p8695
aS'And'
p8696
aS'To'
p8697
aS"I'd"
p8698
aS'And'
p8699
aS'But'
p8700
aS'You'
p8701
aS'To'
p8702
aS'You'
p8703
aS'And'
p8704
ag1077
aS'Oh,'
p8705
aS"That's"
p8706
aS"That's"
p8707
ag373
aS"I'm"
p8708
ag1
aS'The'
p8709
aS'We'
p8710
aS'And'
p8711
aS'Two'
p8712
aS'And'
p8713
aS'Was'
p8714
ag1911
aS'Their'
p8715
aS'On'
p8716
aS'Oh,'
p8717
aS'Every'
p8718
aS'Yeah'
p8719
ag373
ag1
ag2049
ag1
aS'You'
p8720
aS'You'
p8721
aS'You'
p8722
aS'And'
p8723
aS'But'
p8724
aS"Can't"
p8725
ag373
ag373
ag1
aS'Baby,'
p8726
aS'Cause'
p8727
ag4401
aS'Though'
p8728
ag7766
aS'So'
p8729
aS'Someone'
p8730
ag373
aS'Oh,'
p8731
aS'Yeah'
p8732
ag373
ag1
aS'Oooohhhh'
p8733
ag1
aS'You'
p8734
aS'You'
p8735
aS'You'
p8736
aS'And'
p8737
aS'But'
p8738
aS"Can't"
p8739
ag373
ag373
ag1
aS'Baby'
p8740
ag373
aS'Cause'
p8741
aS'Everything'
p8742
aS'Though'
p8743
aS'Fill'
p8744
aS'So'
p8745
aS'Someone'
p8746
ag373
aS'Oh,'
p8747
aS'So'
p8748
ag373
aS'So'
p8749
ag373
aS"I'm"
p8750
aS'It'
p8751
aS'And'
p8752
aS"I'm"
p8753
aS'On'
p8754
aS'When'
p8755
ag1
aS"I'm"
p8756
ag7636
ag3266
aS'When'
p8757
aS'And'
p8758
aS'When'
p8759
aS'Boy'
p8760
ag1
aS"Where'd"
p8761
ag373
ag1211
ag373
ag1
aS'[Chorus:]'
p8762
aS"I'm"
p8763
aS'Your'
p8764
aS'Fed'
p8765
aS'When'
p8766
aS'And'
p8767
aS'When'
p8768
aS'Boy'
p8769
aS'Your'
p8770
aS'Fed'
p8771
aS'When'
p8772
aS'And'
p8773
aS'When'
p8774
aS'Boy'
p8775
ag1
ag6044
ag1
aS'Never'
p8776
ag373
aS'Even'
p8777
ag1
aS'[Chorus]'
p8778
aS'You'
p8779
aS'Not'
p8780
aS'No'
p8781
ag373
ag1
ag373
aS'And'
p8782
ag1
aS'But'
p8783
aS"Don't"
p8784
aS'The'
p8785
aS'Baby,'
p8786
ag1
aS'When'
p8787
aS'Or'
p8788
ag373
aS'The'
p8789
ag1
aS'But'
p8790
aS'And'
p8791
ag1
aS'But'
p8792
aS"Don't"
p8793
aS'The'
p8794
aS'Baby,'
p8795
ag1
ag7478
ag373
aS'And'
p8796
aS'To'
p8797
ag1
aS'Why'
p8798
aS"Don't"
p8799
aS'The'
p8800
aS'Baby,'
p8801
ag4463
ag1
aS'When'
p8802
aS'But'
p8803
aS'Or'
p8804
ag1
ag373
aS'It'
p8805
ag8101
aS'Like'
p8806
ag1
ag6148
ag373
aS'My'
p8807
ag1
aS'But'
p8808
ag373
aS'If'
p8809
aS"I'm"
p8810
ag1
ag373
ag373
aS'If'
p8811
aS"I'm"
p8812
ag1
aS'So'
p8813
aS'What'
p8814
ag373
ag1
ag373
ag373
aS'Not'
p8815
aS'Just'
p8816
ag1
aS'But'
p8817
ag373
aS'If'
p8818
aS"I'm"
p8819
ag1
ag373
ag373
aS'If'
p8820
ag373
ag1
aS'There'
p8821
aS"We'll"
p8822
ag4965
aS"We'll"
p8823
aS'To'
p8824
aS'But'
p8825
ag1
ag373
ag373
aS'If'
p8826
aS"I'm"
p8827
ag1
ag373
ag373
aS'If'
p8828
ag373
ag1
ag1225
aS'Will'
p8829
aS'Or'
p8830
ag1
aS'When'
p8831
aS'He'
p8832
aS'"I\'ll'
p8833
ag1
aS'He'
p8834
aS'He'
p8835
aS'If'
p8836
ag4816
ag1
aS'So'
p8837
aS'He'
p8838
aS'If'
p8839
aS"I'm"
p8840
ag1
aS'Cause'
p8841
aS'He'
p8842
aS'If'
p8843
aS"We're"
p8844
ag1
ag373
ag373
aS'If'
p8845
aS"I'm"
p8846
ag373
aS'Who'
p8847
ag3236
aS'And'
p8848
aS'When'
p8849
aS'And'
p8850
ag1
ag373
aS'When'
p8851
aS'And'
p8852
aS'But'
p8853
ag6159
aS'So'
p8854
ag1
ag1860
ag425
ag4407
aS'And'
p8855
aS'Then'
p8856
aS'And'
p8857
aS'That'
p8858
ag373
ag1
ag373
aS'When'
p8859
aS'And'
p8860
aS'But'
p8861
aS"You'll"
p8862
aS'So'
p8863
ag5135
ag1
aS'Woke'
p8864
aS"I'm"
p8865
aS'The'
p8866
aS'The'
p8867
aS'And'
p8868
aS'On'
p8869
aS"It's"
p8870
aS"It's"
p8871
ag1
ag373
aS'When'
p8872
aS'And'
p8873
aS'But'
p8874
aS"You'll"
p8875
aS'So'
p8876
ag1
ag373
aS"Couldn't"
p8877
ag373
aS'Every'
p8878
aS'You'
p8879
ag2017
aS'Like'
p8880
aS'Like'
p8881
ag7475
aS"You're"
p8882
aS'And'
p8883
ag1
aS'But'
p8884
ag5196
aS'So'
p8885
aS'And'
p8886
aS'Look'
p8887
ag1
aS'So,'
p8888
aS'At'
p8889
aS'To'
p8890
aS'Cause'
p8891
ag373
ag1
aS'Cause'
p8892
aS'Than'
p8893
aS'So'
p8894
aS'And'
p8895
aS'Look'
p8896
ag1
ag373
aS'You'
p8897
ag373
aS'And'
p8898
ag1
aS'When'
p8899
aS'Than'
p8900
aS'So'
p8901
aS'And'
p8902
aS'Look'
p8903
aS'Say'
p8904
aS'Please'
p8905
ag6357
aS'But'
p8906
aS"I've"
p8907
ag1854
aS'You'
p8908
aS'We'
p8909
ag1
aS'But'
p8910
ag4669
aS'The'
p8911
ag373
aS'But'
p8912
aS'And'
p8913
ag1
aS"I'll"
p8914
aS"I'll"
p8915
aS"I'll"
p8916
aS"I'll"
p8917
aS"I'll"
p8918
aS"I'll"
p8919
aS"I'll"
p8920
aS"I'll"
p8921
ag1
aS'Let'
p8922
ag8005
aS'And'
p8923
aS'So'
p8924
ag373
ag1
aS'But'
p8925
aS'Miles'
p8926
aS'The'
p8927
ag1
ag373
aS'But'
p8928
aS'And'
p8929
ag1
aS"I'll"
p8930
aS"I'll"
p8931
aS"I'll"
p8932
aS"I'll"
p8933
aS"I'll"
p8934
aS"I'll"
p8935
aS"I'll"
p8936
aS"I'll"
p8937
ag1
aS'Time'
p8938
aS'Miles'
p8939
aS'Heavens'
p8940
ag373
aS'Time'
p8941
aS'Miles'
p8942
aS'Heavens'
p8943
ag373
ag373
aS"I'll"
p8944
ag1
aS"I'll"
p8945
aS"I'll"
p8946
aS"I'll"
p8947
aS"I'll"
p8948
aS"I'll"
p8949
aS"I'll"
p8950
aS"I'll"
p8951
aS"I'll"
p8952
aS'If'
p8953
aS'Never'
p8954
aS'If'
p8955
aS'Never'
p8956
aS'Without'
p8957
aS'If'
p8958
aS'If'
p8959
ag1
aS'Never'
p8960
aS'If'
p8961
aS'Woulda'
p8962
aS'If'
p8963
ag3187
ag373
aS'If'
p8964
aS'If'
p8965
ag1
ag1425
aS'At'
p8966
aS'Four'
p8967
ag1131
ag1
aS'Never'
p8968
aS'If'
p8969
aS'Never'
p8970
aS'If'
p8971
aS'Never'
p8972
aS'Put'
p8973
aS'If'
p8974
aS'If'
p8975
ag1
aS'Four'
p8976
aS'At'
p8977
aS'Four'
p8978
aS'Lord'
p8979
ag1
aS'Never'
p8980
aS'If'
p8981
aS'Never'
p8982
aS'If'
p8983
aS'Never'
p8984
aS'Put'
p8985
aS'If'
p8986
aS'If'
p8987
aS'If'
p8988
aS'If'
p8989
aS'If'
p8990
aS'If'
p8991
aS'Whenever'
p8992
aS'You'
p8993
aS'Whenever'
p8994
aS'You'
p8995
aS'Whenever'
p8996
aS'You'
p8997
aS'Whenever'
p8998
aS'You'
p8999
ag1
aS'[Chorus:]'
p9000
aS'However'
p9001
aS'However'
p9002
aS'Whatever'
p9003
ag373
ag1
aS'[Verse'
p9004
aS'Whenever'
p9005
aS'You'
p9006
aS'Whenever'
p9007
aS'You'
p9008
ag1
aS'[Chorus:]'
p9009
aS'However'
p9010
aS'However'
p9011
aS'Whatever'
p9012
ag373
ag1
aS'However'
p9013
aS'However'
p9014
aS'Whatever'
p9015
ag1
aS"I'll"
p9016
aS"I'll"
p9017
aS'Cause'
p9018
aS'Love,'
p9019
ag4971
ag1772
aS'And'
p9020
aS'For'
p9021
ag1
aS"It's"
p9022
ag3867
aS'And'
p9023
ag1
ag1260
aS'Wishing'
p9024
aS'And'
p9025
aS'For'
p9026
ag1
aS"It's"
p9027
aS'And'
p9028
aS'Said'
p9029
aS'And'
p9030
ag1
aS'Yes'
p9031
aS"It's"
p9032
aS'And'
p9033
aS'And'
p9034
ag373
aS'Oh'
p9035
ag373
aS'Lose'
p9036
aS'Just'
p9037
ag8189
aS'Why'
p9038
aS'To'
p9039
aS"You're"
p9040
ag1
ag373
aS'Every'
p9041
aS'You'
p9042
aS'To'
p9043
ag1
ag373
ag7752
aS'So'
p9044
aS'To'
p9045
aS'Walk'
p9046
ag1
aS'If'
p9047
aS'You'
p9048
aS'Lose'
p9049
aS'Will'
p9050
aS'And'
p9051
ag1
ag373
aS'Every'
p9052
aS"You'll"
p9053
aS'To'
p9054
ag1
ag373
ag373
aS'So'
p9055
aS'To'
p9056
aS'Walk'
p9057
ag1
ag373
ag373
ag1
ag3598
ag373
aS"(Nobody's"
p9058
ag373
aS"(Nobody's"
p9059
ag373
aS"(Nobody's"
p9060
ag373
ag1
aS'So'
p9061
ag373
aS'So'
p9062
aS'To'
p9063
aS'Walk'
p9064
aS'Come'
p9065
aS'To'
p9066
aS'Walk'
p9067
aS'Reaching'
p9068
aS'Finally'
p9069
aS'Go'
p9070
aS'See'
p9071
aS"Don't"
p9072
ag1
aS"There's"
p9073
aS'Reaching'
p9074
aS'And'
p9075
ag1
aS'The'
p9076
aS'They'
p9077
aS'The'
p9078
ag373
aS'We'
p9079
ag632
aS'Rolling'
p9080
ag8126
aS'You'
p9081
aS"(You're"
p9082
aS'And'
p9083
aS'(Tears'
p9084
ag1
aS'Baby,'
p9085
aS'But'
p9086
aS'And'
p9087
ag3233
aS'Make'
p9088
aS'As'
p9089
ag1
aS"(You're"
p9090
aS'The'
p9091
aS'(Tears'
p9092
aS'They'
p9093
aS"(You're"
p9094
aS'The'
p9095
aS'(Tears'
p9096
ag373
aS'We'
p9097
aS"(You're"
p9098
aS'Rolling'
p9099
aS'(Tears'
p9100
aS'You'
p9101
aS"(You're"
p9102
aS'And'
p9103
aS'(Tears'
p9104
aS'We'
p9105
aS'Rolling'
p9106
aS'You'
p9107
aS'But'
p9108
ag1
ag4460
aS'Count'
p9109
ag5095
aS"You'll"
p9110
aS"(You're"
p9111
aS'We'
p9112
aS'(Tears'
p9113
aS'We'
p9114
aS"(You're"
p9115
aS'It'
p9116
aS'(Tears'
p9117
ag1
aS'We'
p9118
aS"(You're"
p9119
aS'Rolling'
p9120
aS'(Tears'
p9121
aS'You'
p9122
aS"(You're"
p9123
aS'And'
p9124
aS'(Tears'
p9125
ag1
aS'We'
p9126
aS"(You're"
p9127
aS'Rolling'
p9128
aS'(Tears'
p9129
aS'You'
p9130
aS"(You're"
p9131
ag1
aS'But'
p9132
aS'You'
p9133
aS'You'
p9134
aS'You'
p9135
ag1
ag407
ag4364
aS'She'
p9136
aS'You'
p9137
aS'Or'
p9138
aS'Sure,'
p9139
aS'But,'
p9140
ag1
ag7579
aS'She'
p9141
aS'And,'
p9142
aS'She'
p9143
aS'But'
p9144
aS'Now'
p9145
ag1
ag5448
ag1
aS'She,'
p9146
aS'But'
p9147
ag373
aS"You've"
p9148
aS'Like'
p9149
ag3319
ag1
aS'(Bless'
p9150
aS'You'
p9151
aS'And,'
p9152
aS'You'
p9153
aS'But'
p9154
ag1
aS'Rumour'
p9155
ag1
ag1250
aS'Tell'
p9156
aS'Just'
p9157
ag8059
aS'Just'
p9158
aS'Just'
p9159
ag1
aS'Rumour'
p9160
ag1
aS'But'
p9161
ag1
ag1
ag1
ag7964
aS'And'
p9162
aS'It'
p9163
ag266
ag1
aS'My'
p9164
aS'But'
p9165
aS'To'
p9166
aS'Without'
p9167
ag1
aS'But'
p9168
aS'That'
p9169
aS'All'
p9170
aS'They'
p9171
aS'And'
p9172
aS'You'
p9173
ag1
aS'[Chorus:]'
p9174
aS'But'
p9175
aS'Watched'
p9176
aS'Well,'
p9177
aS"'Cause"
p9178
ag1
aS'When'
p9179
ag373
ag6636
aS'Feel'
p9180
aS'You'
p9181
aS'Nothing'
p9182
ag1
aS"'Cause"
p9183
aS'That'
p9184
aS'All'
p9185
aS'They'
p9186
aS'And'
p9187
aS'You'
p9188
ag1
aS'[Chorus:]'
p9189
aS'But'
p9190
aS'Watched'
p9191
aS'Well,'
p9192
aS"'Cause"
p9193
ag1
ag373
aS'And'
p9194
aS'When'
p9195
aS"'Cause"
p9196
ag1
aS'Sometimes'
p9197
aS'That'
p9198
aS'Even'
p9199
ag373
ag1
aS'[Chorus:]'
p9200
ag373
aS'Watched'
p9201
aS'Well,'
p9202
aS"'Cause"
p9203
ag1
ag373
aS'And'
p9204
aS'When'
p9205
aS"'Cause"
p9206
ag1
aS'Oh'
p9207
aS'Let'
p9208
aS'Let'
p9209
aS'Let'
p9210
aS'That'
p9211
ag373
ag5262
ag1
aS'Old'
p9212
ag3619
ag1
ag373
aS'But'
p9213
ag373
aS'That'
p9214
ag1
aS'Never'
p9215
ag373
aS"Don't"
p9216
ag373
aS'"Sometimes'
p9217
aS'Sometimes'
p9218
ag1
aS'You'
p9219
ag7472
aS'We'
p9220
aS'In'
p9221
ag1744
ag1
ag373
aS'But'
p9222
aS"I'd"
p9223
aS'That'
p9224
ag1
aS'Never'
p9225
ag373
aS"Don't"
p9226
ag373
aS'"Sometimes'
p9227
ag1
aS'Nothing'
p9228
aS'No'
p9229
aS'Regrets'
p9230
aS'They'
p9231
aS'Who'
p9232
ag1
aS'Never'
p9233
ag373
aS"Don't"
p9234
ag373
aS'"Sometimes'
p9235
ag1
aS'Never'
p9236
ag373
aS"Don't"
p9237
ag373
aS'"Sometimes'
p9238
aS'Sometimes'
p9239
ag7504
aS'Gave'
p9240
aS'Everything'
p9241
aS"Didn't"
p9242
aS'Did'
p9243
ag1
ag2609
aS'Well,'
p9244
ag3263
aS'From'
p9245
aS"It's"
p9246
aS'Without'
p9247
ag1
aS'[Chorus:]'
p9248
aS'But'
p9249
aS'Take'
p9250
aS"Don't"
p9251
aS'At'
p9252
aS'Just'
p9253
aS'With'
p9254
aS'Take'
p9255
aS'With'
p9256
ag1
aS'Maybe'
p9257
aS'To'
p9258
aS'Nothing'
p9259
aS'And'
p9260
aS'So'
p9261
aS'Is'
p9262
aS"You've"
p9263
ag373
ag1
aS'[Chorus:]'
p9264
aS'But'
p9265
aS'Take'
p9266
aS"Don't"
p9267
aS'At'
p9268
aS'Just'
p9269
aS'With'
p9270
aS'Take'
p9271
aS'With'
p9272
ag1
ag373
ag5415
aS'Oh'
p9273
aS'Everything'
p9274
ag1
aS'[Chorus:]'
p9275
aS'But'
p9276
aS'Go'
p9277
aS'Take'
p9278
aS"Don't"
p9279
aS'At'
p9280
aS'Just'
p9281
aS'Take'
p9282
aS"Don't"
p9283
aS'At'
p9284
aS'Just'
p9285
aS'With'
p9286
aS'Take'
p9287
aS'With'
p9288
aS'Take'
p9289
aS'With'
p9290
aS'All'
p9291
aS'God'
p9292
aS'All'
p9293
ag1
ag373
aS'Under'
p9294
ag1
aS'So,'
p9295
aS'No,'
p9296
ag373
aS"It's"
p9297
aS'To'
p9298
ag1
aS'Under'
p9299
ag3643
ag373
aS'As'
p9300
ag1
ag373
aS'Under'
p9301
ag1
aS'So,'
p9302
aS'No,'
p9303
ag373
aS"It's"
p9304
aS'Turning'
p9305
ag1
aS'Next'
p9306
aS"I'll"
p9307
aS'When'
p9308
aS'Next'
p9309
aS"I'll"
p9310
aS'Standing'
p9311
ag1
ag373
aS'No,'
p9312
ag373
aS"It's"
p9313
aS'To'
p9314
aS'Turning'
p9315
ag5418
aS'Turn'
p9316
aS'Turn'
p9317
aS'Inside'
p9318
ag6731
aS'Tell'
p9319
aS'Just'
p9320
aS"Don't"
p9321
aS"Don't"
p9322
ag1
aS'Cause'
p9323
aS'You'
p9324
ag6047
aS'And'
p9325
ag373
aS'And'
p9326
aS'No'
p9327
aS"'Cause"
p9328
aS'When'
p9329
aS'When'
p9330
ag1
aS"I'll"
p9331
aS"'Cause"
p9332
aS'The'
p9333
aS'When'
p9334
ag2998
aS'And'
p9335
aS'Just'
p9336
aS'To'
p9337
aS'And'
p9338
ag1
aS"'Cause"
p9339
aS'You'
p9340
aS"Somethin'"
p9341
aS'And'
p9342
ag373
ag373
aS'No'
p9343
aS"'Cause"
p9344
aS'When'
p9345
aS'When'
p9346
aS'Oh,'
p9347
ag373
aS'Oh,'
p9348
aS'When'
p9349
aS'So'
p9350
ag373
aS'Oh,'
p9351
ag373
ag373
aS"I'm"
p9352
ag4098
ag1
aS'Well,'
p9353
aS'For'
p9354
aS'Ehole'
p9355
aS'Oh,'
p9356
aS'And'
p9357
ag373
ag1
aS'But'
p9358
aS'They'
p9359
aS'No,'
p9360
aS'They'
p9361
aS'Your'
p9362
aS'They'
p9363
aS'On'
p9364
ag373
ag3613
ag1
aS'Last'
p9365
aS'Oh,'
p9366
aS"Don't"
p9367
aS'Oh,'
p9368
aS'When'
p9369
aS'So'
p9370
aS'Oh,'
p9371
aS"I'm"
p9372
aS'It'
p9373
aS'Cause'
p9374
aS'Yeah'
p9375
ag1
aS'Oh,'
p9376
aS'They'
p9377
aS'No,'
p9378
aS'They'
p9379
aS'In'
p9380
aS'They'
p9381
aS'And'
p9382
ag373
aS'Gonna'
p9383
ag1
aS'Last'
p9384
aS'Oh,'
p9385
ag373
aS'She'
p9386
aS'When'
p9387
aS'So'
p9388
ag373
aS'Oh,'
p9389
ag373
ag373
aS"I'm"
p9390
aS'Out'
p9391
aS'So'
p9392
aS'And'
p9393
aS'And'
p9394
ag1
ag6138
aS'Please'
p9395
ag1
aS'Promise'
p9396
aS'Promise'
p9397
aS'On'
p9398
aS'Promise'
p9399
ag1
aS'Alouette,'
p9400
aS'Alouette,'
p9401
aS'Alouette,'
p9402
ag8285
ag1
aS'Alouette,'
p9403
aS'Alouette,'
p9404
aS'Alouette,'
p9405
aS'Plumerai'
p9406
ag1
aS'Though'
p9407
aS'You'
p9408
aS'Lay'
p9409
aS'But'
p9410
ag1
aS'Before'
p9411
aS'Please'
p9412
ag1
aS'Promise'
p9413
aS'Promise'
p9414
aS'On'
p9415
aS'Promise'
p9416
ag1
aS'By'
p9417
aS'And'
p9418
aS'If'
p9419
aS'Know'
p9420
ag1
aS'Promise'
p9421
aS'Promise'
p9422
aS'On'
p9423
aS'Promise'
p9424
ag1
aS'Alouette,'
p9425
aS'Alouette,'
p9426
aS'Alouette,'
p9427
aS'D\xc3\xa9ployer'
p9428
ag1
aS'Alouette,'
p9429
aS'Alouette,'
p9430
aS'Alouette,'
p9431
aS'Plumerai'
p9432
ag1
aS'Alouette,'
p9433
aS'Alouette,'
p9434
aS'Hold'
p9435
aS'Feel'
p9436
ag3805
ag1
aS'For'
p9437
ag3314
aS'So'
p9438
ag880
ag1
aS'Let'
p9439
aS'When'
p9440
aS'We'
p9441
aS'Face'
p9442
ag1
aS'Let'
p9443
aS'When'
p9444
aS'We'
p9445
aS'Face'
p9446
aS'At'
p9447
ag1
ag2093
ag1211
aS'Where'
p9448
aS'You'
p9449
aS'But'
p9450
ag1
aS'Let'
p9451
aS'When'
p9452
aS'We'
p9453
aS'Face'
p9454
ag1
aS'Let'
p9455
aS'When'
p9456
aS'We'
p9457
aS'Face'
p9458
aS'At'
p9459
ag1
aS'Where'
p9460
aS'What'
p9461
ag373
aS'Without'
p9462
aS'Of'
p9463
aS'Keeping'
p9464
aS'Put'
p9465
aS'And'
p9466
ag1
aS'Let'
p9467
aS'When'
p9468
aS'We'
p9469
aS'Face'
p9470
ag1
aS'Let'
p9471
aS'When'
p9472
aS'We'
p9473
aS'Face'
p9474
aS'At'
p9475
ag1
aS'Let'
p9476
aS'We'
p9477
aS'At'
p9478
asg842
(lp9479
S'<N>'
p9480
asg8607
(lp9481
g1403
asg8315
(lp9482
g7133
aS'<N>'
p9483
aS"sittin'"
p9484
aS'down'
p9485
asg5539
(lp9486
S'<N>'
p9487
aS'<N>'
p9488
aS'and'
p9489
aS'and'
p9490
aS'and'
p9491
aS'and'
p9492
aS'again'
p9493
asg2774
(lp9494
g373
ag373
aS'you'
p9495
asg5786
(lp9496
S'fire'
p9497
aS'fire'
p9498
aS'fire'
p9499
aS'fire'
p9500
aS'fire'
p9501
asg9021
(lp9502
S'me'
p9503
aS'me'
p9504
aS'just'
p9505
aS'this'
p9506
asg6739
(lp9507
g898
aS'that'
p9508
aS'you'
p9509
aS'you'
p9510
ag3994
aS'<N>'
p9511
aS'you'
p9512
aS'you'
p9513
aS'my'
p9514
aS'my'
p9515
aS'you'
p9516
aS'my'
p9517
aS'my'
p9518
aS'<N>'
p9519
aS'you'
p9520
aS'<N>'
p9521
ag373
aS'<N>'
p9522
asg3281
(lp9523
S'<N>'
p9524
aS'<N>'
p9525
aS'to'
p9526
asS'are'
p9527
(lp9528
S'in'
p9529
ag7037
aS'united'
p9530
aS'united'
p9531
aS'fresh'
p9532
aS'raging'
p9533
aS'blowing'
p9534
ag3072
aS'old'
p9535
aS'old'
p9536
aS'<N>'
p9537
aS'gonna'
p9538
aS'gonna'
p9539
aS'gonna'
p9540
aS'gonna'
p9541
aS'gonna'
p9542
aS'gonna'
p9543
aS'gonna'
p9544
aS'gonna'
p9545
aS'gonna'
p9546
aS'gonna'
p9547
aS'gonna'
p9548
aS'you'
p9549
aS'memories'
p9550
aS'with'
p9551
aS'dark'
p9552
asg2681
(lp9553
S'<N>'
p9554
aS'<N>'
p9555
asg4271
(lp9556
S'to'
p9557
aS'the'
p9558
aS'enough'
p9559
aS'enough'
p9560
aS'enough'
p9561
aS'my'
p9562
asg951
(lp9563
S'<N>'
p9564
aS'<N>'
p9565
aS'were'
p9566
aS'you'
p9567
aS'you'
p9568
aS'you'
p9569
asg679
(lp9570
S'with'
p9571
ag1
ag1
ag1
ag1
asg6541
(lp9572
g5265
ag4237
aS'remember'
p9573
aS'remember'
p9574
aS'remember'
p9575
asg5371
(lp9576
S'<N>'
p9577
asg2344
(lp9578
S'while'
p9579
aS'while'
p9580
aS'while'
p9581
asS'hungry;'
p9582
(lp9583
S"I'd"
p9584
asg735
(lp9585
S'<N>'
p9586
aS'<N>'
p9587
asg2749
(lp9588
S'piece,'
p9589
aS'me,'
p9590
asg8464
(lp9591
g6649
asg4702
(lp9592
S'right'
p9593
asg3108
(lp9594
S'<N>'
p9595
aS'<N>'
p9596
aS'time'
p9597
aS'goodbye,'
p9598
aS'time,'
p9599
ag343
aS'time,'
p9600
aS'time,'
p9601
aS'to'
p9602
aS'to'
p9603
aS'to'
p9604
asg5536
(lp9605
S'do'
p9606
ag1679
aS'be'
p9607
aS'call,'
p9608
aS'call'
p9609
aS'call'
p9610
asg9217
(lp9611
S'it'
p9612
aS'it'
p9613
aS'it'
p9614
aS'it'
p9615
asg6956
(lp9616
S'to'
p9617
asg9031
(lp9618
g5956
asg9150
(lp9619
S'your'
p9620
asg2706
(lp9621
S'world'
p9622
aS'life'
p9623
aS'life'
p9624
aS'life'
p9625
aS'life'
p9626
aS'again'
p9627
asg3536
(lp9628
S'<N>'
p9629
asg493
(lp9630
S'never'
p9631
aS'never'
p9632
aS'<N>'
p9633
aS'<N>'
p9634
asg494
(lp9635
S'<N>'
p9636
asg4568
(lp9637
S'and'
p9638
asS'simple'
p9639
(lp9640
S'<N>'
p9641
asg3948
(lp9642
g6646
asS'race,'
p9643
(lp9644
S'<N>'
p9645
asg2283
(lp9646
S'been'
p9647
aS'been'
p9648
aS'been'
p9649
aS'been'
p9650
aS'been'
p9651
aS'been'
p9652
aS'been'
p9653
aS'been'
p9654
aS'been'
p9655
aS'been'
p9656
aS'been'
p9657
aS'been'
p9658
aS'been'
p9659
aS'been'
p9660
aS'been'
p9661
aS'been'
p9662
aS'been'
p9663
aS'been'
p9664
aS'been'
p9665
aS'been'
p9666
asg4784
(lp9667
S'be'
p9668
aS'be'
p9669
asg901
(lp9670
g8348
asg8714
(lp9671
S'all'
p9672
asg7641
(lp9673
S'<N>'
p9674
asg1283
(lp9675
S'<N>'
p9676
asg917
(lp9677
S'mouth'
p9678
ag4890
aS'road'
p9679
aS'in'
p9680
asg6329
(lp9681
g6351
asg7728
(lp9682
S'starting'
p9683
aS'starting'
p9684
aS'to'
p9685
aS'to'
p9686
aS'to'
p9687
aS'to'
p9688
aS'to'
p9689
asg4860
(lp9690
S'on'
p9691
ag4425
aS'right'
p9692
asS'else'
p9693
(lp9694
S'<N>'
p9695
aS'<N>'
p9696
asg7182
(lp9697
g3329
aS'<N>'
p9698
aS'<N>'
p9699
aS'<N>'
p9700
aS'<N>'
p9701
aS'<N>'
p9702
aS'<N>'
p9703
aS'<N>'
p9704
aS'<N>'
p9705
asg1734
(lp9706
S'<N>'
p9707
asg9212
(lp9708
S'friend,'
p9709
asg7169
(lp9710
S'no'
p9711
aS'in'
p9712
ag6682
aS'at'
p9713
aS'like'
p9714
aS'at'
p9715
aS'at'
p9716
aS'for'
p9717
aS'at'
p9718
aS'at'
p9719
aS'at'
p9720
aS'at'
p9721
aS'out'
p9722
aS'into'
p9723
aS'for'
p9724
aS'back'
p9725
aS'back'
p9726
aS'back'
p9727
aS'back'
p9728
asg9180
(lp9729
S'you'
p9730
aS'the'
p9731
asg2628
(lp9732
S'you'
p9733
ag373
ag373
ag373
asg4073
(lp9734
S'and'
p9735
asg6662
(lp9736
S'again'
p9737
asS'further,'
p9738
(lp9739
S'<N>'
p9740
asg4337
(lp9741
S'one'
p9742
aS'for'
p9743
asg2822
(lp9744
S'<N>'
p9745
aS'<N>'
p9746
asg7389
(lp9747
S'on'
p9748
aS'on'
p9749
aS'on'
p9750
aS'on'
p9751
aS'on'
p9752
asS'ready'
p9753
(lp9754
S'to'
p9755
aS'to'
p9756
aS'to'
p9757
aS'to'
p9758
aS'to'
p9759
aS'to'
p9760
asg7792
(lp9761
S'<N>'
p9762
asg7178
(lp9763
S'<N>'
p9764
asg575
(lp9765
S'<N>'
p9766
aS'buried'
p9767
ag373
ag373
ag1732
asg7328
(lp9768
g1458
asS'noooo'
p9769
(lp9770
S'<N>'
p9771
asg8888
(lp9772
S'you'
p9773
ag373
ag373
asg1969
(lp9774
S'<N>'
p9775
aS'to'
p9776
aS'to'
p9777
asg7682
(lp9778
g1342
aS'fix'
p9779
asg972
(lp9780
S'and'
p9781
aS'and'
p9782
asg7474
(lp9783
S'was'
p9784
asg2709
(lp9785
S'that'
p9786
aS'<N>'
p9787
asg3549
(lp9788
S"you're"
p9789
asS'older'
p9790
(lp9791
S'<N>'
p9792
asg8430
(lp9793
S'you'
p9794
aS"you'd"
p9795
asg6838
(lp9796
S'prefer'
p9797
asg732
(lp9798
S'<N>'
p9799
asS'yet,'
p9800
(lp9801
S'<N>'
p9802
asS'spend'
p9803
(lp9804
S'my'
p9805
aS'my'
p9806
aS'my'
p9807
aS'my'
p9808
asS'memories,'
p9809
(lp9810
S'<N>'
p9811
asS'mood.'
p9812
(lp9813
S'<N>'
p9814
asg8369
(lp9815
g373
asg8844
(lp9816
S'willing'
p9817
asg6142
(lp9818
S'my'
p9819
asg8833
(lp9820
S'be'
p9821
asg1487
(lp9822
S'<N>'
p9823
aS'<N>'
p9824
aS'<N>'
p9825
aS'<N>'
p9826
aS'<N>'
p9827
aS'<N>'
p9828
aS'<N>'
p9829
aS'<N>'
p9830
asg6835
(lp9831
S'me'
p9832
asg7557
(lp9833
g373
asg8682
(lp9834
S'this'
p9835
aS'your'
p9836
aS'my'
p9837
aS'that'
p9838
aS'top'
p9839
aS'your'
p9840
aS'your'
p9841
aS'your'
p9842
asg1332
(lp9843
S'night'
p9844
aS'night'
p9845
aS'night'
p9846
asg9035
(lp9847
S'baby'
p9848
ag9769
aS'if'
p9849
asg9243
(lp9850
g373
asg6810
(lp9851
S'the'
p9852
aS'the'
p9853
aS'her'
p9854
asg7700
(lp9855
S'<N>'
p9856
aS'<N>'
p9857
asg2773
(lp9858
S'one,'
p9859
asS'bribing'
p9860
(lp9861
S'me'
p9862
asg8382
(lp9863
S'should'
p9864
ag588
aS'should'
p9865
aS'should'
p9866
aS'should'
p9867
aS'would'
p9868
aS'should'
p9869
aS'would'
p9870
aS'should'
p9871
aS'have'
p9872
aS'at'
p9873
aS'will'
p9874
aS"don't"
p9875
asg9003
(lp9876
S'words'
p9877
aS'words'
p9878
aS'words'
p9879
asS'ignore'
p9880
(lp9881
S'the'
p9882
asg5616
(lp9883
S'think'
p9884
asg3793
(lp9885
g6621
asS'back'
p9886
(lp9887
S'to'
p9888
ag1593
aS'of'
p9889
aS'<N>'
p9890
aS'<N>'
p9891
aS'to'
p9892
aS'on'
p9893
aS'<N>'
p9894
aS'<N>'
p9895
aS'<N>'
p9896
aS'<N>'
p9897
aS'<N>'
p9898
aS'<N>'
p9899
aS'into'
p9900
aS'to'
p9901
aS'to'
p9902
aS'to'
p9903
aS'to'
p9904
aS'in'
p9905
aS'or'
p9906
aS'<N>'
p9907
aS'<N>'
p9908
aS'<N>'
p9909
aS'<N>'
p9910
asg7417
(lp9911
S"I've"
p9912
asg1048
(lp9913
S'and'
p9914
aS'<N>'
p9915
aS'<N>'
p9916
aS'<N>'
p9917
asg4526
(lp9918
S'of'
p9919
asg5278
(lp9920
S'<N>'
p9921
asg8864
(lp9922
S'up'
p9923
asg8640
(lp9924
g6359
asg8529
(lp9925
S'that'
p9926
aS'is'
p9927
aS'compares'
p9928
aS'is'
p9929
asg8760
(lp9930
S"I'm"
p9931
aS"I'm"
p9932
aS"I'm"
p9933
asg7175
(lp9934
S'and'
p9935
aS'through'
p9936
asg8887
(lp9937
S'how'
p9938
aS'how'
p9939
aS'how'
p9940
asg7715
(lp9941
g1263
asg7227
(lp9942
S'into'
p9943
asS'nowhere'
p9944
(lp9945
S'<N>'
p9946
aS'<N>'
p9947
aS'<N>'
p9948
aS'<N>'
p9949
aS'<N>'
p9950
asg2355
(lp9951
S'in'
p9952
aS'in'
p9953
aS'in'
p9954
aS'in'
p9955
aS'in'
p9956
aS'in'
p9957
asg6141
(lp9958
S'<N>'
p9959
asg8103
(lp9960
S'things'
p9961
ag1992
aS'your'
p9962
ag376
aS'you.'
p9963
aS'the'
p9964
aS'the'
p9965
asg8596
(lp9966
S'think'
p9967
asg6504
(lp9968
g373
asg8450
(lp9969
g7883
asg2693
(lp9970
S'of'
p9971
aS'of'
p9972
aS'of'
p9973
aS'of'
p9974
aS'of'
p9975
aS'of'
p9976
aS'of'
p9977
aS'of'
p9978
asg5890
(lp9979
S'go'
p9980
asg923
(lp9981
S'<N>'
p9982
aS'<N>'
p9983
aS'<N>'
p9984
aS'<N>'
p9985
asg7036
(lp9986
S'my'
p9987
ag427
aS'my'
p9988
ag1384
aS'this'
p9989
aS'your'
p9990
ag8156
aS'the'
p9991
aS'the'
p9992
asg721
(lp9993
S'<N>'
p9994
aS"she's"
p9995
aS"I'm"
p9996
asg8715
(lp9997
g8015
asg8726
(lp9998
g373
aS'please'
p9999
aS'please'
p10000
aS'please'
p10001
ag373
asg8761
(lp10002
S'you'
p10003
asg8494
(lp10004
S'the'
p10005
aS'the'
p10006
aS'<N>'
p10007
aS'<N>'
p10008
asg1562
(lp10009
S'<N>'
p10010
aS'<N>'
p10011
aS'<N>'
p10012
ag373
ag373
ag373
aS'<N>'
p10013
asg8614
(lp10014
S'now'
p10015
aS'place'
p10016
aS'time'
p10017
ag652
aS'feeling,'
p10018
asS"we're"
p10019
(lp10020
g536
ag1526
aS'fighting'
p10021
ag260
asg7369
(lp10022
S'to'
p10023
asg9065
(lp10024
S'on'
p10025
asS'girlfriends'
p10026
(lp10027
S'<N>'
p10028
aS'<N>'
p10029
asS'hoped'
p10030
(lp10031
S'that'
p10032
aS"you'd"
p10033
aS"you'd"
p10034
asg7194
(lp10035
S'it'
p10036
asS'Tommo'
p10037
(lp10038
g308
asg9142
(lp10039
S'boy,'
p10040
aS'boy,'
p10041
asg8379
(lp10042
S'never'
p10043
ag9643
ag4264
ag422
aS'say'
p10044
aS'be'
p10045
aS'be'
p10046
aS'be'
p10047
aS'be'
p10048
ag9803
aS'spend'
p10049
aS'spend'
p10050
aS'be'
p10051
ag8047
aS'do'
p10052
aS'be'
p10053
aS'be'
p10054
aS'put'
p10055
aS'be'
p10056
aS'be'
p10057
aS'be'
p10058
aS'put'
p10059
aS'do'
p10060
aS'be'
p10061
aS'be'
p10062
aS'put'
p10063
aS'be'
p10064
aS'be'
p10065
aS'be'
p10066
aS'be'
p10067
aS'put'
p10068
aS'do'
p10069
aS'be'
p10070
aS'be'
p10071
aS'put'
p10072
aS'be'
p10073
aS'be'
p10074
aS'always'
p10075
aS'always'
p10076
aS'lay'
p10077
aS'find'
p10078
aS'find'
p10079
aS'find'
p10080
aS'find'
p10081
aS'be'
p10082
aS'be'
p10083
aS'be'
p10084
aS'be'
p10085
aS'close'
p10086
asg4556
(lp10087
S'<N>'
p10088
aS'on'
p10089
aS'my'
p10090
aS'with'
p10091
aS'<N>'
p10092
aS'<N>'
p10093
aS'<N>'
p10094
aS'<N>'
p10095
aS'the'
p10096
aS'the'
p10097
ag8338
aS'my'
p10098
aS'and'
p10099
ag9800
aS'<N>'
p10100
aS'my'
p10101
aS'<N>'
p10102
aS'my'
p10103
aS'<N>'
p10104
aS'my'
p10105
aS'my'
p10106
aS'my'
p10107
aS'my'
p10108
aS'my'
p10109
aS'<N>'
p10110
aS'my'
p10111
aS'my'
p10112
aS'<N>'
p10113
aS'everything'
p10114
aS'<N>'
p10115
aS'<N>'
p10116
aS'<N>'
p10117
aS'<N>'
p10118
aS'cold'
p10119
aS'of'
p10120
aS'and'
p10121
aS'of'
p10122
aS'of'
p10123
aS'when'
p10124
aS'trying'
p10125
aS'<N>'
p10126
aS'to'
p10127
aS'to'
p10128
aS'feeling'
p10129
aS'to'
p10130
ag427
ag427
aS'your'
p10131
aS'your'
p10132
aS'your'
p10133
aS'your'
p10134
aS'your'
p10135
aS'your'
p10136
aS'by'
p10137
aS'out'
p10138
aS'out'
p10139
aS'so'
p10140
aS'with'
p10141
aS'with'
p10142
aS'this'
p10143
aS'this'
p10144
aS'<N>'
p10145
aS'<N>'
p10146
aS'<N>'
p10147
asg6672
(lp10148
S'<N>'
p10149
aS'<N>'
p10150
aS'<N>'
p10151
ag4229
aS'grow'
p10152
aS'grow'
p10153
aS'grow'
p10154
aS'<N>'
p10155
aS'<N>'
p10156
aS'<N>'
p10157
aS'into'
p10158
aS'into'
p10159
asg2839
(lp10160
S'<N>'
p10161
aS'yeah'
p10162
asg9533
(lp10163
S'on'
p10164
asg3550
(lp10165
S'just'
p10166
asg8371
(lp10167
g1363
aS'make'
p10168
aS'make'
p10169
aS'make'
p10170
aS'make'
p10171
aS'make'
p10172
aS'make'
p10173
aS'make'
p10174
aS'make'
p10175
aS'make'
p10176
aS'make'
p10177
aS'say'
p10178
aS'care'
p10179
aS'bring'
p10180
ag1829
aS'whisper'
p10181
aS'let'
p10182
aS'forgive'
p10183
ag4004
aS'forgive'
p10184
aS'prove'
p10185
aS'prove'
p10186
aS'prove'
p10187
aS'stand'
p10188
aS'help'
p10189
aS'turning'
p10190
aS'turning'
p10191
aS'give'
p10192
asg7698
(lp10193
g291
ag871
aS'word'
p10194
asg6785
(lp10195
S'<N>'
p10196
asg2305
(lp10197
S'all'
p10198
aS'all'
p10199
asg915
(lp10200
g9812
asg8628
(lp10201
S'memories'
p10202
asg5430
(lp10203
S'<N>'
p10204
ag373
asg7561
(lp10205
S'<N>'
p10206
asg965
(lp10207
S'gets'
p10208
asg8578
(lp10209
S'you'
p10210
aS'far'
p10211
aS'far'
p10212
aS'much'
p10213
aS'far'
p10214
aS'mine'
p10215
aS'hard'
p10216
asg8889
(lp10217
S'the'
p10218
aS'least'
p10219
aS'least'
p10220
aS'this'
p10221
aS'this'
p10222
aS'this'
p10223
aS'this'
p10224
ag3626
aS'skyfall'
p10225
aS'skyfall'
p10226
aS'skyfall'
p10227
asg2831
(lp10228
S'<N>'
p10229
aS'<N>'
p10230
aS'<N>'
p10231
aS'<N>'
p10232
asg10211
(lp10233
S'as'
p10234
aS'<N>'
p10235
aS'as'
p10236
aS'as'
p10237
aS'away'
p10238
aS'away'
p10239
aS'away'
p10240
aS'too'
p10241
asS"she's"
p10242
(lp10243
S'got'
p10244
aS'bringing'
p10245
asg8940
(lp10246
S'cried,'
p10247
aS'cried,'
p10248
asS'having'
p10249
(lp10250
S'me'
p10251
asg6807
(lp10252
g6711
aS'more,'
p10253
aS'more,'
p10254
aS'more,'
p10255
asg6793
(lp10256
S'make'
p10257
asg7590
(lp10258
S'my'
p10259
asg6746
(lp10260
g9886
aS'and'
p10261
aS'all'
p10262
ag9582
ag5057
aS'crawling'
p10263
ag7532
aS'<N>'
p10264
aS'<N>'
p10265
aS'when'
p10266
aS'<N>'
p10267
aS'<N>'
p10268
aS'<N>'
p10269
aS'<N>'
p10270
aS'<N>'
p10271
aS'<N>'
p10272
aS'back'
p10273
aS'<N>'
p10274
aS'<N>'
p10275
aS'<N>'
p10276
aS'<N>'
p10277
aS'<N>'
p10278
aS'<N>'
p10279
aS'on'
p10280
ag4590
aS'on'
p10281
aS'on'
p10282
aS'<N>'
p10283
aS'with'
p10284
ag373
aS'<N>'
p10285
asg8730
(lp10286
g9693
aS'else'
p10287
asg7383
(lp10288
S'<N>'
p10289
aS'<N>'
p10290
aS'<N>'
p10291
asg6661
(lp10292
S'again'
p10293
asg8780
(lp10294
g427
aS'one'
p10295
asg9145
(lp10296
g6055
asg6863
(lp10297
S'<N>'
p10298
aS'<N>'
p10299
asg4143
(lp10300
S'<N>'
p10301
ag2927
asg10253
(lp10302
S'<N>'
p10303
aS'<N>'
p10304
aS'<N>'
p10305
aS'<N>'
p10306
aS'<N>'
p10307
aS'<N>'
p10308
asg1535
(lp10309
S'that'
p10310
aS'that'
p10311
aS'that'
p10312
aS'that'
p10313
asg8524
(lp10314
g1936
aS'in'
p10315
ag373
ag373
ag373
ag10026
aS'girlfriends'
p10316
asS'notes'
p10317
(lp10318
S'and'
p10319
asg5552
(lp10320
S'to'
p10321
aS'and'
p10322
aS'<N>'
p10323
aS'<N>'
p10324
asg1672
(lp10325
g4848
ag2148
ag5076
aS'say'
p10326
aS'save'
p10327
aS'get'
p10328
aS'come'
p10329
aS'find'
p10330
aS'come'
p10331
aS'say'
p10332
ag3827
aS'see'
p10333
aS'be'
p10334
aS'see'
p10335
aS'be'
p10336
asg1435
(lp10337
S'think'
p10338
aS'think'
p10339
asg6791
(lp10340
S'<N>'
p10341
asg7140
(lp10342
S'<N>'
p10343
asg5276
(lp10344
S'<N>'
p10345
aS'<N>'
p10346
asg1301
(lp10347
S'would'
p10348
asg4285
(lp10349
S"I'm"
p10350
asg4727
(lp10351
S'<N>'
p10352
asS'giving'
p10353
(lp10354
S'out'
p10355
aS'out'
p10356
aS'up'
p10357
aS'up'
p10358
aS'up'
p10359
aS'up'
p10360
aS'up'
p10361
aS'up'
p10362
asg2056
(lp10363
S'for'
p10364
ag3464
aS'for'
p10365
aS'for'
p10366
aS'for'
p10367
aS'for'
p10368
aS'for'
p10369
aS'for'
p10370
aS'for'
p10371
asg2825
(lp10372
S'<N>'
p10373
asS'adjust.'
p10374
(lp10375
S'<N>'
p10376
asg2589
(lp10377
S'to'
p10378
aS'to'
p10379
asS'pushing'
p10380
(lp10381
g1914
asg8287
(lp10382
g888
aS'ail\xc3\xa9s'
p10383
aS'ail\xc3\xa9s'
p10384
aS'ail\xc3\xa9s'
p10385
aS'ail\xc3\xa9s'
p10386
aS'ail\xc3\xa9s'
p10387
asg7167
(lp10388
S'go'
p10389
aS'it'
p10390
aS'my'
p10391
aS'me'
p10392
aS'me'
p10393
aS'me'
p10394
aS'it'
p10395
aS'you'
p10396
aS'you'
p10397
aS'you'
p10398
aS'you'
p10399
aS'go'
p10400
asg2600
(lp10401
S'up'
p10402
aS'up'
p10403
aS'up'
p10404
aS'up'
p10405
asS'fifteen'
p10406
(lp10407
S'<N>'
p10408
asg7739
(lp10409
S'big'
p10410
asS'call?"'
p10411
(lp10412
S'<N>'
p10413
asg4728
(lp10414
S'<N>'
p10415
aS'of'
p10416
aS'of'
p10417
aS'of'
p10418
aS'of'
p10419
aS'of'
p10420
aS'of'
p10421
aS'of'
p10422
aS'of'
p10423
aS'of'
p10424
aS'of'
p10425
aS'of'
p10426
aS'of'
p10427
aS'of'
p10428
asS'leaving'
p10429
(lp10430
S'her'
p10431
aS'you'
p10432
asS'makes'
p10433
(lp10434
S'me'
p10435
asg7283
(lp10436
S'it'
p10437
asg8447
(lp10438
S'up'
p10439
asg7374
(lp10440
S'my'
p10441
asS'from'
p10442
(lp10443
g7957
aS'the'
p10444
aS'your'
p10445
aS'greed,'
p10446
aS'looking'
p10447
aS'the'
p10448
ag7980
asg7184
(lp10449
g3991
aS'in'
p10450
aS'<N>'
p10451
asg2728
(lp10452
S'parts'
p10453
asg9109
(lp10454
S'your'
p10455
asg6452
(lp10456
S'<N>'
p10457
aS'<N>'
p10458
asg5659
(lp10459
S'<N>'
p10460
asg6376
(lp10461
S'<N>'
p10462
aS'your'
p10463
aS'your'
p10464
aS'your'
p10465
asg8443
(lp10466
g1541
asg2768
(lp10467
g8151
aS'to'
p10468
aS'to'
p10469
asg2270
(lp10470
S'<N>'
p10471
aS'<N>'
p10472
ag373
aS'<N>'
p10473
aS'<N>'
p10474
aS'<N>'
p10475
aS'<N>'
p10476
aS'<N>'
p10477
asg6574
(lp10478
g4030
aS'is'
p10479
aS'be'
p10480
aS'state'
p10481
aS'world'
p10482
aS'world'
p10483
ag5406
aS'situation'
p10484
aS'endless'
p10485
aS'time'
p10486
ag5369
aS"ain't"
p10487
aS"ain't"
p10488
aS'ride'
p10489
aS"ain't"
p10490
aS"ain't"
p10491
aS"ain't"
p10492
aS"ain't"
p10493
aS"ain't"
p10494
aS"ain't"
p10495
aS"ain't"
p10496
aS"ain't"
p10497
aS'time'
p10498
aS'would'
p10499
aS'crumbling'
p10500
aS'<N>'
p10501
aS'is'
p10502
aS'really'
p10503
aS'crumbling'
p10504
aS'crumbling'
p10505
aS'crumbling'
p10506
aS'fight'
p10507
aS'fight'
p10508
aS'for'
p10509
aS'<N>'
p10510
aS'for'
p10511
aS'if'
p10512
aS'if'
p10513
aS'if'
p10514
aS'is'
p10515
aS'moment'
p10516
asg10489
(lp10517
S'<N>'
p10518
asg2005
(lp10519
S'<N>'
p10520
aS'<N>'
p10521
aS'<N>'
p10522
aS'<N>'
p10523
aS'<N>'
p10524
aS'<N>'
p10525
aS'<N>'
p10526
aS'<N>'
p10527
asg2343
(lp10528
S'as'
p10529
aS'as'
p10530
aS'as'
p10531
asg7262
(lp10532
S'<N>'
p10533
aS'<N>'
p10534
asg4104
(lp10535
S'<N>'
p10536
asg7095
(lp10537
S'and'
p10538
aS'and'
p10539
asg1191
(lp10540
S'this'
p10541
asg1328
(lp10542
g1747
asg2756
(lp10543
S'<N>'
p10544
asS'high'
p10545
(lp10546
S'<N>'
p10547
asg6009
(lp10548
S'is'
p10549
aS'is'
p10550
ag3500
aS'died'
p10551
asg6386
(lp10552
S'<N>'
p10553
aS'<N>'
p10554
asg9530
(lp10555
S'<N>'
p10556
aS'<N>'
p10557
asg1137
(lp10558
g7848
ag2399
aS'pavements'
p10559
aS'pavements'
p10560
aS'pavements'
p10561
aS'pavements'
p10562
asg7199
(lp10563
S'on'
p10564
aS'on'
p10565
aS'and'
p10566
asg7452
(lp10567
S'<N>'
p10568
aS'me'
p10569
asg323
(lp10570
S'<N>'
p10571
asg5307
(lp10572
g373
aS'<N>'
p10573
asg7513
(lp10574
g3781
asg7176
(lp10575
S"I'll"
p10576
ag4449
asg4732
(lp10577
S'<N>'
p10578
aS'<N>'
p10579
asg9589
(lp10580
S'<N>'
p10581
asg1505
(lp10582
S'<N>'
p10583
asg715
(lp10584
S"I'll"
p10585
asg10263
(lp10586
S'down'
p10587
aS'back'
p10588
asg9019
(lp10589
S'love,'
p10590
asg1763
(lp10591
S'and'
p10592
asg5004
(lp10593
S'be'
p10594
aS'be'
p10595
aS'be'
p10596
ag309
aS'go'
p10597
aS'go'
p10598
aS'forgive'
p10599
aS'go'
p10600
aS'go'
p10601
aS'go'
p10602
aS'go'
p10603
aS'be'
p10604
aS'go'
p10605
aS'go'
p10606
aS'go'
p10607
aS'go'
p10608
aS'stand'
p10609
aS'be'
p10610
aS'let'
p10611
ag1149
aS'let'
p10612
aS'rescue'
p10613
aS'let'
p10614
aS'rescue'
p10615
aS'<N>'
p10616
aS'<N>'
p10617
aS'see'
p10618
aS'<N>'
p10619
aS'<N>'
p10620
aS'understand'
p10621
aS'understand'
p10622
asS'tables,'
p10623
(lp10624
S'yeah'
p10625
asg8011
(lp10626
g9809
asg847
(lp10627
S'then'
p10628
asg7399
(lp10629
S'to'
p10630
aS'to'
p10631
aS'to'
p10632
aS'to'
p10633
aS'to'
p10634
aS'to'
p10635
aS'to'
p10636
aS'to'
p10637
aS'to'
p10638
aS'to'
p10639
aS'to'
p10640
asg596
(lp10641
S'the'
p10642
aS"you'll"
p10643
asg7573
(lp10644
S'<N>'
p10645
aS'<N>'
p10646
aS'<N>'
p10647
aS'<N>'
p10648
asg2792
(lp10649
S'of'
p10650
asg8629
(lp10651
S'up'
p10652
aS'up'
p10653
aS'up'
p10654
aS'up'
p10655
aS'up'
p10656
asg8554
(lp10657
S'<N>'
p10658
asg7521
(lp10659
g10037
asg8340
(lp10660
g8159
ag3842
aS'wait'
p10661
aS'wait'
p10662
aS'wait'
p10663
aS'up,'
p10664
aS'up,'
p10665
aS'up,'
p10666
aS'up,'
p10667
aS'up,'
p10668
aS'up,'
p10669
asS'day'
p10670
(lp10671
g373
aS'is'
p10672
aS'<N>'
p10673
aS'is'
p10674
aS'<N>'
p10675
aS'is'
p10676
aS'<N>'
p10677
asg7549
(lp10678
g1399
aS'collide'
p10679
asg587
(lp10680
S'<N>'
p10681
asg8351
(lp10682
g4593
aS'that'
p10683
asS'I\xe2\x80\x99d'
p10684
(lp10685
S'never'
p10686
asg2669
(lp10687
S'that'
p10688
asg9245
(lp10689
S'all'
p10690
asg9306
(lp10691
S'time'
p10692
aS'time'
p10693
asg8571
(lp10694
g8025
asS'our'
p10695
(lp10696
S'time'
p10697
aS'eyes'
p10698
aS'eyes'
p10699
aS'eyes'
p10700
aS'eyes'
p10701
aS'eyes'
p10702
aS'lives'
p10703
aS'glory'
p10704
asg10446
(lp10705
S'<N>'
p10706
asg3469
(lp10707
g6247
aS'it'
p10708
ag1523
aS'of'
p10709
aS'the'
p10710
aS'the'
p10711
aS'and'
p10712
aS'way'
p10713
ag4255
aS'way'
p10714
aS'<N>'
p10715
aS'<N>'
p10716
aS'<N>'
p10717
aS'the'
p10718
aS'and'
p10719
aS'the'
p10720
aS'of'
p10721
aS'when'
p10722
aS'of'
p10723
aS'your'
p10724
aS'your'
p10725
aS'your'
p10726
aS'of'
p10727
aS'of'
p10728
aS'<N>'
p10729
aS'<N>'
p10730
aS'<N>'
p10731
asg2113
(lp10732
S'<N>'
p10733
aS'<N>'
p10734
aS'<N>'
p10735
aS'the'
p10736
aS'the'
p10737
ag1849
asg2786
(lp10738
S'<N>'
p10739
aS'<N>'
p10740
asg8740
(lp10741
S'<N>'
p10742
asg8492
(lp10743
S'there'
p10744
asg3723
(lp10745
S'<N>'
p10746
asg8352
(lp10747
S'made'
p10748
ag7975
aS"isn't"
p10749
aS"ain't"
p10750
aS'love'
p10751
aS'is'
p10752
aS'is'
p10753
asg6844
(lp10754
S'erased'
p10755
asg4745
(lp10756
S'<N>'
p10757
asg1952
(lp10758
S'<N>'
p10759
asg4160
(lp10760
S'<N>'
p10761
asg3012
(lp10762
S'this'
p10763
aS'change'
p10764
ag10411
ag3384
aS'hold'
p10765
aS'make'
p10766
aS'be'
p10767
aS'be'
p10768
ag1695
ag1234
aS'lay'
p10769
aS'lay'
p10770
aS'never'
p10771
aS'have'
p10772
aS'have'
p10773
aS'have'
p10774
aS'have'
p10775
aS'have'
p10776
aS'have'
p10777
aS'have'
p10778
aS'stay'
p10779
asg8260
(lp10780
S'of'
p10781
aS'of'
p10782
aS'of'
p10783
aS'of'
p10784
asg3739
(lp10785
S'<N>'
p10786
asg1958
(lp10787
S'we'
p10788
asS'[x8]'
p10789
(lp10790
S'<N>'
p10791
aS'<N>'
p10792
asg4597
(lp10793
S'just'
p10794
ag4334
aS'just'
p10795
aS'not'
p10796
aS'stubborn'
p10797
aS'always'
p10798
ag10353
aS'stubborn'
p10799
aS'always'
p10800
aS'giving'
p10801
aS'here'
p10802
aS'here'
p10803
aS'here'
p10804
aS'here'
p10805
aS'on'
p10806
aS'on'
p10807
aS'at'
p10808
aS'on'
p10809
aS'too'
p10810
ag9753
aS'ready'
p10811
aS'ready'
p10812
aS'ready'
p10813
aS'ready'
p10814
aS'ready'
p10815
aS'cold'
p10816
ag10429
ag561
aS'married'
p10817
aS'home'
p10818
asg4459
(lp10819
S'<N>'
p10820
asg4516
(lp10821
S'but'
p10822
aS'but'
p10823
aS'but'
p10824
aS'<N>'
p10825
aS'<N>'
p10826
aS'<N>'
p10827
aS'<N>'
p10828
aS'<N>'
p10829
aS'then'
p10830
aS'then'
p10831
aS'then'
p10832
aS'then'
p10833
aS'then'
p10834
aS'then'
p10835
aS'then'
p10836
aS'then'
p10837
aS'then'
p10838
aS'then'
p10839
aS'love...'
p10840
aS'they'
p10841
aS'they'
p10842
aS'<N>'
p10843
aS'<N>'
p10844
aS'<N>'
p10845
asg936
(lp10846
S'<N>'
p10847
aS'<N>'
p10848
aS'<N>'
p10849
aS'<N>'
p10850
aS'<N>'
p10851
ag308
asg6257
(lp10852
g4308
asg7664
(lp10853
S'<N>'
p10854
asg1558
(lp10855
g5216
aS'<N>'
p10856
aS'is'
p10857
ag373
asg7701
(lp10858
S'<N>'
p10859
aS'<N>'
p10860
asg10410
(lp10861
S'lie'
p10862
asS'shorts'
p10863
(lp10864
S'and'
p10865
asg4978
(lp10866
g7482
aS'what'
p10867
asg6842
(lp10868
S'me'
p10869
aS'me'
p10870
aS'me'
p10871
aS'me'
p10872
asg1976
(lp10873
S'something'
p10874
aS'something'
p10875
asg5921
(lp10876
S'this'
p10877
aS'<N>'
p10878
aS'<N>'
p10879
aS'<N>'
p10880
aS'<N>'
p10881
asg981
(lp10882
S'<N>'
p10883
aS'<N>'
p10884
aS'<N>'
p10885
aS'<N>'
p10886
asS'loves'
p10887
(lp10888
S'me'
p10889
asg6054
(lp10890
S'<N>'
p10891
asg2334
(lp10892
g10789
aS'[x8]'
p10893
aS'[x14]'
p10894
asg1887
(lp10895
S'up'
p10896
aS'up'
p10897
aS'up'
p10898
asS'have'
p10899
(lp10900
S'many'
p10901
aS'many,'
p10902
aS'many'
p10903
aS'you'
p10904
aS'you'
p10905
ag2163
ag427
aS'you'
p10906
ag427
ag1596
aS'mercy'
p10907
aS'you'
p10908
aS'had'
p10909
aS'no'
p10910
aS'had'
p10911
aS'had'
p10912
aS'had'
p10913
aS'had'
p10914
aS'had'
p10915
aS'had'
p10916
ag1396
aS'known'
p10917
aS'is'
p10918
aS'my'
p10919
aS'my'
p10920
asg6742
(lp10921
S'and'
p10922
aS'and'
p10923
ag4267
aS'to'
p10924
aS'to'
p10925
aS'to'
p10926
aS'to'
p10927
aS'to'
p10928
aS'you.'
p10929
ag6554
aS'you!'
p10930
aS'you'
p10931
aS'you'
p10932
aS'you'
p10933
aS'you'
p10934
aS'you'
p10935
aS'you'
p10936
aS'you'
p10937
aS'you'
p10938
aS'you'
p10939
aS'you'
p10940
aS'you'
p10941
asg2248
(lp10942
S'and'
p10943
aS'and'
p10944
aS'and'
p10945
asg322
(lp10946
S'and'
p10947
asg3766
(lp10948
S'to'
p10949
asg9400
(lp10950
g4948
aS'-uette,'
p10951
aS'-uette,'
p10952
aS'-uette,'
p10953
aS'-uette,'
p10954
aS'-uette,'
p10955
aS'-uette,'
p10956
aS'-uette,'
p10957
aS'-uette,'
p10958
aS'-uette,'
p10959
aS'-uette,'
p10960
aS'-uette,'
p10961
aS'd\xc3\xa9ployer'
p10962
aS'd\xc3\xa9ployer'
p10963
asg9080
(lp10964
S'in'
p10965
aS'in'
p10966
aS'in'
p10967
aS'in'
p10968
aS'in'
p10969
asg7717
(lp10970
g7987
aS'house'
p10971
asg6778
(lp10972
g10433
aS"I'd"
p10973
aS'wants'
p10974
ag2977
ag373
ag373
ag10887
aS'can'
p10975
aS'can'
p10976
aS'can'
p10977
aS'can'
p10978
asg6380
(lp10979
S'<N>'
p10980
asg8553
(lp10981
S"there's"
p10982
asg8572
(lp10983
S'me'
p10984
aS'me'
p10985
aS'one'
p10986
ag3812
aS'me'
p10987
aS'the'
p10988
asg703
(lp10989
S'you'
p10990
aS"I'm"
p10991
aS"I'm"
p10992
aS'are'
p10993
aS'<N>'
p10994
asg6390
(lp10995
S'<N>'
p10996
ag2000
aS'against'
p10997
aS'against'
p10998
aS'under'
p10999
aS'<N>'
p11000
aS'and'
p11001
aS'and'
p11002
asg5606
(lp11003
S'up'
p11004
asg4602
(lp11005
S'never'
p11006
aS'say'
p11007
aS'be'
p11008
aS'walk'
p11009
aS'just'
p11010
aS'go'
p11011
asg2714
(lp11012
S'for'
p11013
asg2423
(lp11014
S"it's"
p11015
aS'<N>'
p11016
aS'<N>'
p11017
asg8499
(lp11018
S'taking'
p11019
aS'sees'
p11020
aS'sees'
p11021
asg9355
(lp11022
S'minutes'
p11023
asg5399
(lp11024
S'and'
p11025
asg325
(lp11026
S"I've"
p11027
aS"I've"
p11028
asg9859
(lp11029
g4483
aS"I'm"
p11030
aS"I'm"
p11031
aS"I'm"
p11032
asg10180
(lp11033
S'you'
p11034
aS'it'
p11035
asg9294
(lp11036
S'your'
p11037
ag1841
aS'your'
p11038
asg2765
(lp11039
S'of'
p11040
asg7984
(lp11041
S'<N>'
p11042
aS'<N>'
p11043
aS'<N>'
p11044
asg2663
(lp11045
S'for'
p11046
ag10670
aS'for'
p11047
aS'for'
p11048
aS'for'
p11049
aS'that'
p11050
aS'where'
p11051
aS'there'
p11052
aS'in'
p11053
aS'in'
p11054
aS'in'
p11055
aS'in'
p11056
aS'in'
p11057
aS'in'
p11058
aS'had'
p11059
ag1769
aS'day'
p11060
aS'day'
p11061
aS'day'
p11062
aS'more'
p11063
aS'more'
p11064
ag7141
aS'that'
p11065
aS'and'
p11066
aS'who'
p11067
aS'and'
p11068
aS'who'
p11069
aS'and'
p11070
aS'who'
p11071
aS'who'
p11072
aS'on'
p11073
aS"you're"
p11074
aS"I'm"
p11075
asg495
(lp11076
S'never'
p11077
aS'<N>'
p11078
aS'never'
p11079
aS'<N>'
p11080
asg5219
(lp11081
S'<N>'
p11082
aS'<N>'
p11083
aS'<N>'
p11084
asg1213
(lp11085
g4161
asg10902
(lp11086
S'you'
p11087
asS'should'
p11088
(lp11089
S'know'
p11090
aS'know'
p11091
ag373
ag373
ag373
ag373
ag373
ag373
ag373
aS'be'
p11092
aS'know'
p11093
aS'have'
p11094
aS'leave'
p11095
asg3731
(lp11096
g10545
asS'hope'
p11097
(lp11098
S'you'
p11099
asg7364
(lp11100
S'to'
p11101
aS'it,'
p11102
aS'it,'
p11103
asg10840
(lp11104
g308
asg5424
(lp11105
S'hastiness'
p11106
asg7694
(lp11107
g7055
aS'fool.'
p11108
aS'fool.'
p11109
aS'fool.'
p11110
aS'fool.'
p11111
asg2731
(lp11112
g1455
ag373
asg2661
(lp11113
g3467
aS'made'
p11114
aS'made'
p11115
aS'made'
p11116
aS'made'
p11117
ag9527
aS"I'd"
p11118
aS'that'
p11119
aS'that'
p11120
aS'you'
p11121
aS'that'
p11122
ag373
ag373
ag373
ag5199
asg10485
(lp11123
S'game'
p11124
asg4733
(lp11125
S'it'
p11126
asg8445
(lp11127
S"I'm"
p11128
aS'you'
p11129
asg5829
(lp11130
S'<N>'
p11131
asg10817
(lp11132
S'now.'
p11133
asS'aye)'
p11134
(lp11135
S'<N>'
p11136
asg3952
(lp11137
S'me'
p11138
aS'me'
p11139
asg409
(lp11140
S"ain't"
p11141
aS"ain't"
p11142
aS"ain't"
p11143
ag2992
aS'said'
p11144
aS'said'
p11145
aS'said'
p11146
asg7427
(lp11147
S"that's"
p11148
asg1219
(lp11149
S'<N>'
p11150
asg8438
(lp11151
S'me'
p11152
asg4682
(lp11153
S'<N>'
p11154
asg1540
(lp11155
S'to'
p11156
aS'you'
p11157
aS'<N>'
p11158
aS'one'
p11159
asS'see-through'
p11160
(lp11161
S'<N>'
p11162
asg904
(lp11163
S'<N>'
p11164
aS'and'
p11165
aS"I'll"
p11166
aS"I'll"
p11167
aS"I'll"
p11168
aS"I'll"
p11169
asg10481
(lp11170
S"I'm"
p11171
aS'we'
p11172
asg918
(lp11173
S'<N>'
p11174
aS'<N>'
p11175
aS'<N>'
p11176
aS'<N>'
p11177
asg7683
(lp11178
g6568
aS'with'
p11179
asg2713
(lp11180
S'of'
p11181
asg4723
(lp11182
S'doors,'
p11183
asg1007
(lp11184
S'and'
p11185
aS'into'
p11186
asg9711
(lp11187
g9738
aS'way'
p11188
aS'one'
p11189
ag9639
ag875
aS'room'
p11190
aS'one'
p11191
aS'room'
p11192
ag1780
ag7998
aS'doubt'
p11193
ag4261
aS'story'
p11194
ag558
aS'lies'
p11195
aS'more'
p11196
aS'more'
p11197
asg10962
(lp11198
S'les'
p11199
aS'les'
p11200
asg6460
(lp11201
g373
ag373
asg6377
(lp11202
S'<N>'
p11203
aS'and'
p11204
asg973
(lp11205
g1
aS'<N>'
p11206
asg11023
(lp11207
S'now'
p11208
asg7359
(lp11209
g5397
ag5428
ag582
asg6927
(lp11210
S'<N>'
p11211
asg8597
(lp11212
S"ain't"
p11213
aS"ain't"
p11214
asg4282
(lp11215
g373
ag373
asS'teasing'
p11216
(lp11217
S'me'
p11218
aS"ain't"
p11219
aS"ain't"
p11220
aS"ain't"
p11221
asg11009
(lp11222
g7834
aS'away'
p11223
asg9069
(lp11224
g373
asg9464
(lp11225
S'me'
p11226
asg9230
(lp11227
S'and'
p11228
asg11195
(lp11229
S'<N>'
p11230
asg10755
(lp11231
S'me'
p11232
asg5588
(lp11233
S'<N>'
p11234
aS"I'm"
p11235
aS"I'm"
p11236
aS'now'
p11237
aS'now'
p11238
asg7146
(lp11239
g3440
asg4595
(lp11240
g7923
aS'all'
p11241
aS'my'
p11242
aS'you'
p11243
ag9860
ag4819
aS'been'
p11244
aS'been'
p11245
aS'been'
p11246
aS'been'
p11247
aS'done'
p11248
aS'been'
p11249
ag11216
ag7673
aS'over'
p11250
aS'blue,'
p11251
aS'blue,'
p11252
ag7551
ag330
aS'bringing'
p11253
asg6756
(lp11254
S'me'
p11255
asg7691
(lp11256
S'<N>'
p11257
aS'<N>'
p11258
aS'<N>'
p11259
ag10695
asg7531
(lp11260
g11134
asg2377
(lp11261
g373
asg9442
(lp11262
S'it'
p11263
aS'it'
p11264
aS'it'
p11265
aS'it'
p11266
aS'it'
p11267
aS'it'
p11268
asg8706
(lp11269
S'not'
p11270
aS'it'
p11271
asg8353
(lp11272
S"I'm"
p11273
ag1720
ag373
aS"I'm"
p11274
ag373
aS'be'
p11275
aS"you'll"
p11276
aS"you'll"
p11277
ag4976
ag4047
aS'my'
p11278
aS'the'
p11279
aS'every'
p11280
aS'turn'
p11281
aS'if'
p11282
aS'make'
p11283
aS'gets'
p11284
aS'save'
p11285
aS'feeling'
p11286
aS'he'
p11287
aS'he'
p11288
aS'you'
p11289
aS'he'
p11290
ag373
ag373
aS'if'
p11291
ag7541
aS'the'
p11292
aS'there'
p11293
aS'on'
p11294
aS"it's"
p11295
aS"there's"
p11296
aS"it's"
p11297
aS"there's"
p11298
aS"it's"
p11299
aS'you'
p11300
aS"I'm"
p11301
ag373
ag373
ag373
ag4968
aS"it's"
p11302
ag3190
aS"I'm"
p11303
aS'now'
p11304
ag396
aS'now'
p11305
aS'no'
p11306
aS'now'
p11307
aS'hold'
p11308
aS'leave'
p11309
aS'you'
p11310
aS'though'
p11311
aS'fall'
p11312
aS'fall'
p11313
aS'your'
p11314
aS'for'
p11315
aS'for'
p11316
aS'for'
p11317
ag427
ag427
ag10030
aS'It'
p11318
ag4881
aS'wake'
p11319
ag6708
ag6029
aS'wake'
p11320
aS'though'
p11321
aS'wake'
p11322
aS"I'm"
p11323
aS'lay'
p11324
aS'lay'
p11325
ag9880
aS'lay'
p11326
ag373
ag6624
ag373
ag373
ag373
ag373
ag373
ag373
ag373
ag373
aS'have'
p11327
aS"it's"
p11328
aS'you'
p11329
aS"I'm"
p11330
aS'you'
p11331
aS'you'
p11332
aS'as'
p11333
aS'the'
p11334
aS'the'
p11335
ag373
ag373
aS'this'
p11336
aS'here'
p11337
ag373
ag5204
ag373
aS'here'
p11338
ag373
aS'me'
p11339
aS'you'
p11340
ag1506
ag2518
ag5296
asg3949
(lp11341
S'when'
p11342
aS'when'
p11343
asg7540
(lp11344
S'my'
p11345
ag373
aS'it'
p11346
aS'it'
p11347
aS'it'
p11348
aS'time'
p11349
aS'rain'
p11350
aS'rain'
p11351
aS"I'm"
p11352
aS"I'm"
p11353
aS'it'
p11354
aS'rain'
p11355
aS'rain'
p11356
aS"I'm"
p11357
ag373
aS'it'
p11358
ag373
ag373
ag373
aS'you'
p11359
asg5466
(lp11360
S'do'
p11361
aS'feel'
p11362
aS'find'
p11363
aS'feel'
p11364
aS'never'
p11365
ag373
ag373
aS'be'
p11366
ag431
aS'he'
p11367
aS'he'
p11368
aS'<N>'
p11369
aS'<N>'
p11370
aS'always'
p11371
aS'always'
p11372
aS'always'
p11373
aS'always'
p11374
aS'always'
p11375
aS'always'
p11376
aS'always'
p11377
aS'always'
p11378
aS'always'
p11379
aS'always'
p11380
aS'always'
p11381
aS'do'
p11382
aS'change'
p11383
ag10374
aS'never'
p11384
aS'lay'
p11385
aS'feel'
p11386
aS'come'
p11387
aS'give'
p11388
aS'lay'
p11389
aS'feel'
p11390
aS'stand'
p11391
aS'stand'
p11392
aS'stand'
p11393
aS'stand'
p11394
aS'stand'
p11395
aS'stand'
p11396
aS'stand'
p11397
asg5775
(lp11398
S'<N>'
p11399
asS'wild'
p11400
(lp11401
S'and'
p11402
asg9406
(lp11403
S'les'
p11404
aS'les'
p11405
asS'almost'
p11406
(lp11407
S'fall'
p11408
aS'had'
p11409
aS'had'
p11410
asg3548
(lp11411
S'<N>'
p11412
asg7979
(lp11413
S'<N>'
p11414
asg8355
(lp11415
g11088
aS'should'
p11416
aS'say'
p11417
ag8167
ag1608
aS'make'
p11418
aS'know'
p11419
aS'shower'
p11420
aS'grace'
p11421
aS'shower'
p11422
aS'grace'
p11423
aS'shower'
p11424
aS'said'
p11425
ag7034
aS'can'
p11426
aS'get'
p11427
aS"ain't"
p11428
aS'can'
p11429
ag10899
aS'have'
p11430
aS'say'
p11431
aS'say'
p11432
aS'build'
p11433
aS'said'
p11434
aS'say'
p11435
aS'say'
p11436
aS'like'
p11437
aS'said'
p11438
aS'say'
p11439
aS'say'
p11440
aS'like'
p11441
aS'know'
p11442
aS'know'
p11443
aS'know'
p11444
aS'know'
p11445
aS'get'
p11446
aS'can'
p11447
aS'give'
p11448
aS'know'
p11449
aS'should'
p11450
aS"don't"
p11451
aS'close'
p11452
aS'made'
p11453
aS'made'
p11454
aS'made'
p11455
aS'made'
p11456
aS'made'
p11457
aS'made'
p11458
aS'left'
p11459
aS'and'
p11460
ag684
aS'know'
p11461
aS'make'
p11462
aS'make'
p11463
aS'make'
p11464
aS'make'
p11465
aS'make'
p11466
aS'make'
p11467
aS'never'
p11468
ag2612
aS'had'
p11469
aS'had'
p11470
aS'had'
p11471
aS'had'
p11472
aS'had'
p11473
aS'played'
p11474
aS'played'
p11475
aS'played'
p11476
aS'and'
p11477
aS'made'
p11478
aS'made'
p11479
aS'would'
p11480
aS'and'
p11481
aS'would'
p11482
aS'know'
p11483
aS"can't"
p11484
aS"can't"
p11485
aS'are'
p11486
aS'may'
p11487
asg440
(lp11488
S'your'
p11489
aS'your'
p11490
asg8962
(lp11491
S'been'
p11492
asg10453
(lp11493
S'of'
p11494
asg11284
(lp11495
S'me'
p11496
ag9790
asg7231
(lp11497
S'<N>'
p11498
asg5433
(lp11499
S'<N>'
p11500
aS'<N>'
p11501
aS'and'
p11502
aS'<N>'
p11503
aS'and'
p11504
aS'<N>'
p11505
aS'your'
p11506
aS'at'
p11507
aS'<N>'
p11508
aS'<N>'
p11509
aS'<N>'
p11510
asg2518
(lp11511
g7342
aS'can'
p11512
ag11097
asg7253
(lp11513
S'<N>'
p11514
asS'fighting'
p11515
(lp11516
S'these'
p11517
aS'for'
p11518
asg5568
(lp11519
g373
aS'of'
p11520
ag5129
aS'of'
p11521
ag373
ag373
aS'that'
p11522
aS'you'
p11523
asg11183
(lp11524
S'<N>'
p11525
asg7023
(lp11526
S'me?'
p11527
asg7697
(lp11528
g10442
aS'<N>'
p11529
aS'to'
p11530
aS'on'
p11531
aS'my'
p11532
aS'my'
p11533
aS'my'
p11534
asg7926
(lp11535
S'<N>'
p11536
aS'<N>'
p11537
asg2747
(lp11538
g373
asg6291
(lp11539
S'with'
p11540
asg2523
(lp11541
S'if'
p11542
asg3744
(lp11543
S'<N>'
p11544
asg4801
(lp11545
S'<N>'
p11546
asg8561
(lp11547
S'you'
p11548
ag1107
ag1409
aS'that'
p11549
aS'that'
p11550
aS'baby'
p11551
aS'and'
p11552
aS'baby'
p11553
aS'baby,'
p11554
aS'baby'
p11555
aS'and'
p11556
aS'baby'
p11557
aS'people'
p11558
aS'baby'
p11559
aS'little'
p11560
asg8762
(lp11561
S'<N>'
p11562
aS'<N>'
p11563
aS'<N>'
p11564
aS'<N>'
p11565
aS'<N>'
p11566
aS'<N>'
p11567
aS'<N>'
p11568
aS'<N>'
p11569
aS'<N>'
p11570
asg2780
(lp11571
S'has'
p11572
aS'has'
p11573
aS'fall'
p11574
aS'fall'
p11575
aS'fall'
p11576
aS'fall'
p11577
aS'fall'
p11578
aS'fall'
p11579
aS'fall'
p11580
asg8472
(lp11581
S'my'
p11582
asg9417
(lp11583
g427
asg470
(lp11584
S'at'
p11585
aS'at'
p11586
asg7745
(lp11587
g10863
asg5277
(lp11588
g5174
asg2700
(lp11589
S'<N>'
p11590
asg11090
(lp11591
S'that'
p11592
aS'things'
p11593
aS'that'
p11594
aS'<N>'
p11595
aS'this'
p11596
ag373
aS'just'
p11597
aS'how'
p11598
aS'you'
p11599
aS'me'
p11600
aS'who'
p11601
aS'you'
p11602
aS'that'
p11603
aS'that'
p11604
aS'that'
p11605
aS'that'
p11606
aS'when'
p11607
aS'when'
p11608
aS'when'
p11609
aS'when'
p11610
aS'how'
p11611
ag373
aS'<N>'
p11612
aS'<N>'
p11613
ag373
ag373
aS'you'
p11614
ag427
aS'my'
p11615
ag373
ag373
ag373
ag373
ag373
aS"he's"
p11616
aS"he's"
p11617
aS'how'
p11618
aS'how'
p11619
aS'how'
p11620
aS'why'
p11621
aS'if'
p11622
aS'how'
p11623
aS'why'
p11624
aS'if'
p11625
aS'it'
p11626
aS'it'
p11627
aS'it'
p11628
aS'it'
p11629
aS'it'
p11630
aS'how'
p11631
aS'this'
p11632
aS'why'
p11633
aS'this'
p11634
ag10684
asg8406
(lp11635
g6238
asg7331
(lp11636
S'to'
p11637
aS"it's"
p11638
ag11160
aS"he's"
p11639
aS"he's"
p11640
aS'it'
p11641
aS'it'
p11642
aS'me'
p11643
ag427
aS'there'
p11644
aS'there'
p11645
aS'there'
p11646
aS'to'
p11647
aS'to'
p11648
aS'to'
p11649
aS'to'
p11650
aS'to'
p11651
aS'to'
p11652
ag373
aS'everything'
p11653
aS'everything'
p11654
aS'everything'
p11655
ag427
ag373
ag373
ag373
ag373
ag373
ag373
ag373
aS'you'
p11656
aS'you'
p11657
aS'you'
p11658
aS'you'
p11659
aS'you'
p11660
asg5728
(lp11661
S'all'
p11662
aS'all'
p11663
aS'your'
p11664
asg6187
(lp11665
S'and'
p11666
aS'and'
p11667
asg711
(lp11668
S'my'
p11669
aS'my'
p11670
aS'my'
p11671
asg8118
(lp11672
g7459
asg921
(lp11673
S'and'
p11674
asg3223
(lp11675
S'his'
p11676
asg5540
(lp11677
g427
asg752
(lp11678
S'<N>'
p11679
aS'<N>'
p11680
asg4291
(lp11681
S'to'
p11682
aS"'cause"
p11683
asg6389
(lp11684
S'<N>'
p11685
asg2678
(lp11686
S'when'
p11687
asg8463
(lp11688
S'no'
p11689
aS'so'
p11690
aS'so'
p11691
aS'so'
p11692
aS'so'
p11693
aS'so'
p11694
aS'so'
p11695
aS'so'
p11696
aS'so'
p11697
aS'so'
p11698
ag427
ag427
asg3740
(lp11699
S'so'
p11700
aS'to'
p11701
aS'<N>'
p11702
aS'<N>'
p11703
aS'<N>'
p11704
aS'<N>'
p11705
ag7829
aS'again'
p11706
aS'down'
p11707
aS'with'
p11708
asg760
(lp11709
S'<N>'
p11710
aS'<N>'
p11711
aS'<N>'
p11712
aS'<N>'
p11713
aS'<N>'
p11714
asg780
(lp11715
S'<N>'
p11716
aS'<N>'
p11717
asg3521
(lp11718
g373
aS'<N>'
p11719
aS'<N>'
p11720
aS'<N>'
p11721
aS'<N>'
p11722
aS'<N>'
p11723
aS'<N>'
p11724
asg9001
(lp11725
S'far'
p11726
aS'long'
p11727
aS'far'
p11728
aS'long'
p11729
aS'far'
p11730
aS'long'
p11731
asg2196
(lp11732
S'in'
p11733
ag11400
asg9318
(lp11734
S'my'
p11735
asg2737
(lp11736
g10380
asg7418
(lp11737
S'to'
p11738
aS'to'
p11739
aS'to'
p11740
asg5523
(lp11741
S"I'll"
p11742
ag3410
aS'behind'
p11743
aS'here'
p11744
ag373
ag373
ag373
aS'there'
p11745
aS'away,'
p11746
aS'away,'
p11747
asg4294
(lp11748
S'<N>'
p11749
asg2131
(lp11750
S'my'
p11751
aS'my'
p11752
aS'my'
p11753
aS'my'
p11754
asg4511
(lp11755
S'where'
p11756
ag10406
asg4716
(lp11757
g9944
asg4500
(lp11758
g7665
aS'made'
p11759
aS'been'
p11760
ag519
aS'met'
p11761
ag7610
aS'known'
p11762
aS'never'
p11763
aS'known'
p11764
ag549
ag8326
ag2932
aS'cried'
p11765
aS'had'
p11766
aS'cried'
p11767
aS'had'
p11768
aS'ever'
p11769
aS'ever'
p11770
aS'ever'
p11771
aS'seen'
p11772
aS'been'
p11773
ag4992
aS'been'
p11774
aS'been'
p11775
aS'imagined'
p11776
ag7514
aS'learned'
p11777
aS'learned'
p11778
aS'learned'
p11779
aS'heard'
p11780
aS'been'
p11781
asg6873
(lp11782
S'that'
p11783
asg8877
(lp11784
S'help'
p11785
asg943
(lp11786
S'is'
p11787
asg6241
(lp11788
S'how'
p11789
asg956
(lp11790
g4999
aS'<N>'
p11791
aS'<N>'
p11792
aS'<N>'
p11793
aS'<N>'
p11794
aS'<N>'
p11795
aS'<N>'
p11796
aS'<N>'
p11797
aS'<N>'
p11798
aS'<N>'
p11799
aS'<N>'
p11800
aS'<N>'
p11801
aS'<N>'
p11802
ag4038
aS'savior'
p11803
aS'two'
p11804
asg5893
(lp11805
S'them'
p11806
asg8712
(lp11807
S'hours'
p11808
asg5760
(lp11809
S"I'm"
p11810
aS"I'm"
p11811
asg9139
(lp11812
g10242
asg6994
(lp11813
S'<N>'
p11814
asg1537
(lp11815
S'your'
p11816
aS'your'
p11817
asg6143
(lp11818
S'<N>'
p11819
asg8822
(lp11820
S'try'
p11821
ag11406
asg8586
(lp11822
g373
asg3392
(lp11823
S'our'
p11824
ag1982
aS'so'
p11825
aS"I'm"
p11826
ag10019
aS"I'm"
p11827
aS'we'
p11828
aS'we'
p11829
aS'we'
p11830
aS'we'
p11831
aS'we'
p11832
aS'we'
p11833
aS'we'
p11834
aS'now'
p11835
aS'now'
p11836
ag373
ag373
aS"I'm"
p11837
aS'the'
p11838
ag8270
aS'sometimes'
p11839
aS'the'
p11840
aS'sometimes'
p11841
aS'the'
p11842
aS'sometimes'
p11843
aS'the'
p11844
aS'sometimes'
p11845
aS'sometimes'
p11846
aS'you'
p11847
aS'you'
p11848
asg5999
(lp11849
g6705
aS'could'
p11850
aS'will'
p11851
ag4456
ag3638
aS'will'
p11852
aS'said'
p11853
aS'still'
p11854
aS'still'
p11855
aS'go'
p11856
aS'would'
p11857
aS"won't"
p11858
aS"ain't"
p11859
asg4812
(lp11860
S'to'
p11861
asg10748
(lp11862
S'you'
p11863
aS'up'
p11864
aS'of'
p11865
aS'of'
p11866
aS'of'
p11867
aS'of'
p11868
aS'your'
p11869
aS'of'
p11870
aS'up'
p11871
aS'up'
p11872
aS'up'
p11873
aS'me'
p11874
aS'me'
p11875
aS'me'
p11876
aS'me'
p11877
aS'me'
p11878
aS'me'
p11879
ag427
aS'your'
p11880
ag427
aS'my'
p11881
asg5110
(lp11882
S'<N>'
p11883
aS'days'
p11884
asg5490
(lp11885
g373
ag373
ag373
ag373
ag373
ag373
ag373
ag373
aS"you'd"
p11886
ag373
ag373
aS'that'
p11887
ag373
aS'you'
p11888
aS'you'
p11889
aS'you'
p11890
aS'you'
p11891
aS'you'
p11892
aS'you'
p11893
aS'you'
p11894
aS'you'
p11895
aS'you'
p11896
aS'you'
p11897
aS'you'
p11898
aS'you'
p11899
aS'nothing'
p11900
aS'nothing'
p11901
aS'nothing'
p11902
aS'nothing'
p11903
asg7615
(lp11904
S'never'
p11905
aS'take'
p11906
aS'be'
p11907
aS'take'
p11908
aS'be'
p11909
aS'take'
p11910
aS'be'
p11911
asg9046
(lp11912
S'that'
p11913
aS'that'
p11914
aS'that'
p11915
aS'that'
p11916
asg5082
(lp11917
S'in'
p11918
aS'in'
p11919
asg568
(lp11920
S'<N>'
p11921
aS'<N>'
p11922
aS'<N>'
p11923
aS'<N>'
p11924
ag308
asg6438
(lp11925
S'to'
p11926
asg328
(lp11927
S'of'
p11928
asg6174
(lp11929
g11515
asg9709
(lp11930
S'why'
p11931
asg10181
(lp11932
g3090
asg6391
(lp11933
S'<N>'
p11934
aS'<N>'
p11935
asg6957
(lp11936
S'my'
p11937
asg9305
(lp11938
S'tables'
p11939
ag10623
asg10894
(lp11940
S'<N>'
p11941
asg8776
(lp11942
S'mind'
p11943
ag7897
aS'woulda'
p11944
aS'woulda'
p11945
aS'woulda'
p11946
aS'woulda'
p11947
aS'woulda'
p11948
aS'woulda'
p11949
aS'woulda'
p11950
aS'woulda'
p11951
aS'woulda'
p11952
aS'mind,'
p11953
aS'mind,'
p11954
aS'mind,'
p11955
aS'mind,'
p11956
asg5312
(lp11957
S'<N>'
p11958
asg1434
(lp11959
g427
ag427
aS'night'
p11960
asg9928
(lp11961
S'<N>'
p11962
asg5762
(lp11963
S'it'
p11964
ag373
asg1308
(lp11965
S'<N>'
p11966
aS'<N>'
p11967
asg8071
(lp11968
S'<N>'
p11969
asg8354
(lp11970
S"I'm"
p11971
aS"I'm"
p11972
aS'the'
p11973
ag4347
ag10317
ag427
ag427
aS'when'
p11974
asg6302
(lp11975
S"can't"
p11976
asg2821
(lp11977
g308
asg4704
(lp11978
S'<N>'
p11979
aS'<N>'
p11980
aS'turned'
p11981
asg11106
(lp11982
g1987
asg7724
(lp11983
S'<N>'
p11984
aS'<N>'
p11985
aS'<N>'
p11986
aS'<N>'
p11987
asg6839
(lp11988
S'<N>'
p11989
ag308
asg9036
(lp11990
S'myself'
p11991
aS'yourself'
p11992
asg6461
(lp11993
S'is'
p11994
asg254
(lp11995
S'to'
p11996
aS'to'
p11997
asg9177
(lp11998
S'it'
p11999
aS'it'
p12000
aS'it'
p12001
ag10249
aS"I've"
p12002
asg10703
(lp12003
S'<N>'
p12004
asg5917
(lp12005
S'<N>'
p12006
aS'<N>'
p12007
asg8478
(lp12008
S"it's"
p12009
as.