(dp0
S''
p1
(lp2
S'<N>'
p3
aS'<N>'
p4
aS'<N>'
p5
aS'<N>'
p6
aS'<N>'
p7
aS'<N>'
p8
aS'<N>'
p9
aS'<N>'
p10
aS'<N>'
p11
aS'<N>'
p12
aS'<N>'
p13
aS'<N>'
p14
aS'<N>'
p15
aS'<N>'
p16
aS'<N>'
p17
aS'<N>'
p18
aS'<N>'
p19
aS'<N>'
p20
aS'<N>'
p21
aS'<N>'
p22
aS'<N>'
p23
aS'<N>'
p24
aS'<N>'
p25
aS'<N>'
p26
aS'<N>'
p27
aS'<N>'
p28
aS'<N>'
p29
aS'<N>'
p30
aS'<N>'
p31
aS'<N>'
p32
aS'<N>'
p33
aS'<N>'
p34
aS'<N>'
p35
aS'<N>'
p36
aS'<N>'
p37
aS'<N>'
p38
aS'<N>'
p39
aS'<N>'
p40
aS'<N>'
p41
aS'<N>'
p42
aS'<N>'
p43
aS'<N>'
p44
aS'<N>'
p45
aS'<N>'
p46
aS'<N>'
p47
aS'<N>'
p48
aS'<N>'
p49
aS'<N>'
p50
aS'<N>'
p51
aS'<N>'
p52
aS'<N>'
p53
aS'<N>'
p54
aS'<N>'
p55
aS'<N>'
p56
aS'<N>'
p57
aS'<N>'
p58
aS'<N>'
p59
aS'<N>'
p60
aS'<N>'
p61
aS'<N>'
p62
aS'<N>'
p63
aS'<N>'
p64
aS'<N>'
p65
aS'<N>'
p66
aS'<N>'
p67
aS'<N>'
p68
aS'<N>'
p69
aS'<N>'
p70
aS'<N>'
p71
aS'<N>'
p72
aS'<N>'
p73
aS'<N>'
p74
aS'<N>'
p75
aS'<N>'
p76
aS'<N>'
p77
aS'<N>'
p78
aS'<N>'
p79
aS'<N>'
p80
aS'<N>'
p81
aS'<N>'
p82
aS'<N>'
p83
aS'<N>'
p84
aS'<N>'
p85
aS'<N>'
p86
aS'<N>'
p87
aS'<N>'
p88
aS'<N>'
p89
aS'<N>'
p90
aS'<N>'
p91
aS'<N>'
p92
aS'<N>'
p93
aS'<N>'
p94
aS'<N>'
p95
aS'<N>'
p96
aS'<N>'
p97
aS'<N>'
p98
aS'<N>'
p99
aS'<N>'
p100
aS'<N>'
p101
aS'<N>'
p102
aS'<N>'
p103
aS'<N>'
p104
aS'<N>'
p105
aS'<N>'
p106
aS'<N>'
p107
aS'<N>'
p108
aS'<N>'
p109
aS'<N>'
p110
aS'<N>'
p111
aS'<N>'
p112
aS'<N>'
p113
aS'<N>'
p114
aS'<N>'
p115
aS'<N>'
p116
aS'<N>'
p117
aS'<N>'
p118
aS'<N>'
p119
aS'<N>'
p120
aS'<N>'
p121
aS'<N>'
p122
aS'<N>'
p123
aS'<N>'
p124
aS'<N>'
p125
aS'<N>'
p126
aS'<N>'
p127
aS'<N>'
p128
aS'<N>'
p129
aS'<N>'
p130
aS'<N>'
p131
aS'<N>'
p132
aS'<N>'
p133
aS'<N>'
p134
aS'<N>'
p135
aS'<N>'
p136
aS'<N>'
p137
aS'<N>'
p138
aS'<N>'
p139
aS'<N>'
p140
aS'<N>'
p141
aS'<N>'
p142
aS'<N>'
p143
asS'ever,'
p144
(lp145
S'ever'
p146
asS"cruisin'"
p147
(lp148
S'wit'
p149
asS'sleep'
p150
(lp151
S'here'
p152
aS'them'
p153
asS'Toledo'
p154
(lp155
S'what'
p156
asS'hate'
p157
(lp158
S'<N>'
p159
asS'Until'
p160
(lp161
S'I'
p162
asS'forget'
p163
(lp164
S'you'
p165
asS'swag'
p166
(lp167
S'was'
p168
asS'(for'
p169
(lp170
S'the'
p171
asS'up?'
p172
(lp173
S'<N>'
p174
aS'<N>'
p175
aS'<N>'
p176
aS'<N>'
p177
aS'<N>'
p178
aS'<N>'
p179
aS'<N>'
p180
aS'<N>'
p181
aS'<N>'
p182
aS'<N>'
p183
aS'<N>'
p184
aS'<N>'
p185
aS'<N>'
p186
aS'<N>'
p187
aS'<N>'
p188
aS'<N>'
p189
aS'<N>'
p190
aS'<N>'
p191
aS'<N>'
p192
aS'<N>'
p193
aS'<N>'
p194
aS'<N>'
p195
aS'<N>'
p196
aS'<END>'
p197
aS'<N>'
p198
asS'common,'
p199
(lp200
S'<N>'
p201
asS'skill,'
p202
(lp203
S'red-rum'
p204
asS'lord'
p205
(lp206
S'adore'
p207
aS'my'
p208
aS'my'
p209
aS'my'
p210
aS'my'
p211
aS'my'
p212
aS'my'
p213
asS'ray-cash,'
p214
(lp215
S'get'
p216
asS'rise'
p217
(lp218
S'up'
p219
asS'moustache",'
p220
(lp221
S'<N>'
p222
asS'hazy,'
p223
(lp224
S'hazy,'
p225
aS'hazy...'
p226
aS'hazy,'
p227
aS'hazy...'
p228
asS'stabbed'
p229
(lp230
S'me'
p231
asS'school'
p232
(lp233
S'for'
p234
asS'pinch'
p235
(lp236
S'of'
p237
asS'Uh,'
p238
(lp239
S'saddle'
p240
asS'Dozed'
p241
(lp242
S'in'
p243
asS'me,'
p244
(lp245
g1
ag1
aS'<N>'
p246
aS'me'
p247
aS'Mr.'
p248
aS'but'
p249
asS'me.'
p250
(lp251
g197
asS'me)'
p252
(lp253
S'<N>'
p254
aS'<N>'
p255
aS'<N>'
p256
aS'<N>'
p257
asS"I'mma"
p258
(lp259
S'tell'
p260
asS'(just'
p261
(lp262
S'like'
p263
asS'blue'
p264
(lp265
S'Cutlass,'
p266
aS'(what,'
p267
asS'hide'
p268
(lp269
S'in'
p270
asS'change)'
p271
(lp272
S'<N>'
p273
asS"'You"
p274
(lp275
S'smoke?'
p276
asS'lights'
p277
(lp278
S"shinin'"
p279
asS'above'
p280
(lp281
S'him'
p282
aS'what'
p283
asS'new'
p284
(lp285
S'(what,'
p286
aS'<N>'
p287
aS'shoes'
p288
aS'route'
p289
asg146
(lp290
S'be'
p291
aS'been'
p292
aS'been'
p293
aS'been'
p294
aS'seen'
p295
aS'been'
p296
aS'been'
p297
aS'been'
p298
aS'get'
p299
aS'be'
p300
aS'heard'
p301
aS'met'
p302
asS'told'
p303
(lp304
S'me'
p305
aS'now?'
p306
aS'now?'
p307
asS'Niggas'
p308
(lp309
S"can't"
p310
asS'never'
p311
(lp312
S'change'
p313
aS'gave'
p314
aS'a'
p315
aS'catch'
p316
aS'seen'
p317
asS'up,'
p318
(lp319
S'let'
p320
aS'barkeep,'
p321
aS'said,'
p322
aS'put'
p323
asS'here'
p324
(lp325
S'in'
p326
aS'to'
p327
aS'to'
p328
aS'to'
p329
aS'we'
p330
aS'for'
p331
aS'by'
p332
aS'on'
p333
asS'met'
p334
(lp335
S'me'
p336
aS'one'
p337
aS'<N>'
p338
aS'you,'
p339
asS'home-ay'
p340
(lp341
S'<N>'
p342
asS'phone,'
p343
(lp344
S'sidekick'
p345
asS'Ohio'
p346
(lp347
S'what'
p348
asS'through,'
p349
(lp350
S'better'
p351
aS'through'
p352
asg279
(lp353
S"'round,"
p354
asg354
(lp355
S'<N>'
p356
asS'substance'
p357
(lp358
S'to'
p359
aS'to'
p360
asS'light,'
p361
(lp362
S'these'
p363
asS'smoke'
p364
(lp365
S'it'
p366
aS'it'
p367
aS'til'
p368
aS'all'
p369
aS'that'
p370
aS'that'
p371
aS'that'
p372
asS'stressed'
p373
(lp374
S'out'
p375
asS'NOW'
p376
(lp377
S"I'm"
p378
asS'changes'
p379
(lp380
S'with'
p381
asS'laughter]'
p382
(lp383
g197
asS'feelings'
p384
(lp385
S'that'
p386
aS'take'
p387
asS'bro'
p388
(lp389
S'<N>'
p390
aS'<N>'
p391
asS"'Yeah,"
p392
(lp393
S'me'
p394
asS'would'
p395
(lp396
S'you'
p397
aS'be'
p398
aS'love'
p399
aS'be'
p400
aS'be'
p401
aS'disperse'
p402
asS'arms'
p403
(lp404
S'crossed,'
p405
aS'to'
p406
asS'music'
p407
(lp408
S'<N>'
p409
asS'until'
p410
(lp411
g162
asS'right,'
p412
(lp413
S'<N>'
p414
asS'type'
p415
(lp416
S'to'
p417
asg260
(lp418
S'you'
p419
aS'you'
p420
aS'you'
p421
ag315
aS'me'
p422
ag315
aS'me'
p423
asS'under'
p424
(lp425
S'before'
p426
asS'hurt'
p427
(lp428
S'<N>'
p429
aS'<N>'
p430
asS'phone'
p431
(lp432
S'(what,'
p433
asS'KanYe'
p434
(lp435
S'what'
p436
asS'hold'
p437
(lp438
S'you'
p439
asS'must'
p440
(lp441
S'be'
p442
aS'be'
p443
aS'be'
p444
aS'be'
p445
aS'tell'
p446
asg305
(lp447
S'"Thanks'
p448
aS'nowhere,'
p449
aS'and'
p450
ag162
aS'out'
p451
aS'in'
p452
ag162
aS'<N>'
p453
aS'Neo'
p454
aS'(what,'
p455
aS'<N>'
p456
aS'half'
p457
aS'to'
p458
aS'super'
p459
aS'when'
p460
aS'how'
p461
aS'<N>'
p462
aS'<N>'
p463
aS'<N>'
p464
aS'<N>'
p465
aS'<N>'
p466
aS'<N>'
p467
aS'<N>'
p468
aS'(cant'
p469
aS'<N>'
p470
aS'(cant'
p471
aS'<N>'
p472
aS'(cant'
p473
aS'<N>'
p474
aS'(cant'
p475
aS'<N>'
p476
aS'<N>'
p477
aS'man'
p478
aS'man'
p479
aS'more'
p480
aS'thinkin'
p481
aS'thinkin'
p482
aS'lame,'
p483
aS"too'"
p484
ag437
aS'too?'
p485
aS'out'
p486
ag315
aS'what'
p487
aS'like'
p488
aS"I'm"
p489
aS'to'
p490
aS'to'
p491
aS'special'
p492
ag162
aS'in'
p493
aS'<N>'
p494
aS'<N>'
p495
aS'girl'
p496
aS'(wooh'
p497
aS'boo'
p498
aS'and'
p499
aS'and'
p500
aS'girl'
p501
aS'(wooh'
p502
aS'boo'
p503
aS'and'
p504
aS'and'
p505
aS'girl'
p506
aS'(wooh'
p507
aS'boo'
p508
aS'and'
p509
aS'and'
p510
aS'girl'
p511
aS'(wooh'
p512
aS'boo'
p513
aS'and'
p514
aS'and'
p515
asS'books,'
p516
(lp517
S'<N>'
p518
asS'roof'
p519
(lp520
g280
aS'<N>'
p521
aS'<N>'
p522
asS'Mescudi,'
p523
(lp524
S'boys'
p525
asS'arm,'
p526
(lp527
S'just'
p528
asS'my'
p529
(lp530
S'closet'
p531
aS'bread.'
p532
aS'Cutlass'
p533
aS'whip'
p534
aS"sippin'"
p535
aS'side'
p536
aS'my'
p537
aS'city."'
p538
aS'accent,'
p539
aS'bad'
p540
aS'city,'
p541
aS'whip'
p542
aS"sippin'"
p543
aS'side'
p544
aS'my'
p545
aS'city."'
p546
aS'back'
p547
aS'speed-racer'
p548
aS'Cleveland'
p549
aS'city'
p550
aS'man'
p551
aS'nigga'
p552
aS'aura'
p553
aS'passion'
p554
aS'mind,'
p555
aS'story,'
p556
aS'song'
p557
aS'father'
p558
aS'pivot,'
p559
aS'life'
p560
aS'grind,'
p561
aS'money'
p562
aS'soul'
p563
aS"room's"
p564
aS'sim'
p565
aS'mind'
p566
aS'mind'
p567
aS'mind'
p568
aS'favorites'
p569
aS'heaven'
p570
aS'mind'
p571
aS'blunt'
p572
aS'dude'
p573
aS'eyes,'
p574
ag166
aS'mind'
p575
aS'show'
p576
aS'show)'
p577
aS'money'
p578
aS'money)'
p579
aS'Bathing'
p580
aS'Bathing'
p581
aS'soul'
p582
aS'victory'
p583
aS'eyes'
p584
aS'mom'
p585
aS'blood'
p586
aS'words'
p587
aS'stoner'
p588
aS'dimples'
p589
aS'soul'
p590
aS'soul'
p591
aS'story'
p592
aS'story'
p593
aS'dude'
p594
aS'steez'
p595
aS'moves'
p596
aS'fans,'
p597
aS'creep'
p598
aS'mind'
p599
aS'niggas'
p600
aS'dude'
p601
aS'steez'
p602
aS'moves'
p603
aS'words'
p604
aS'birth'
p605
aS'soul'
p606
aS'soul'
p607
aS'soul'
p608
aS'soul'
p609
aS'soul'
p610
aS'soul'
p611
aS'heartbeat'
p612
aS'nuts,'
p613
aS'mind'
p614
aS'sweet'
p615
asg289
(lp616
S'<N>'
p617
asS'give'
p618
(lp619
g315
aS'them'
p620
aS'me'
p621
ag252
aS'me'
p622
aS'me'
p623
aS'me)'
p624
aS'me'
p625
aS'my'
p626
asS'stressing'
p627
(lp628
S'my'
p629
asS'titanium'
p630
(lp631
S'alloy'
p632
asS'want'
p633
(lp634
S'to'
p635
aS'me'
p636
aS'me'
p637
aS'to'
p638
aS'to'
p639
ag315
aS'em,'
p640
aS'me'
p641
aS'me'
p642
aS'me'
p643
aS'me'
p644
aS'me'
p645
aS'me'
p646
aS'me'
p647
aS'me'
p648
asS'Lord'
p649
(lp650
S'help'
p651
asS'thing'
p652
(lp653
S'you'
p654
asS'provide'
p655
(lp656
S'for'
p657
aS'my'
p658
asS'hoo'
p659
(lp660
S'hoo'
p661
aS'wooh'
p662
aS'hoo)'
p663
aS'hoo'
p664
aS'wooh'
p665
aS'hoo)'
p666
aS'hoo'
p667
aS'wooh'
p668
aS'hoo)'
p669
aS'hoo)'
p670
asS'Shit,'
p671
(lp672
S'one'
p673
asS'how'
p674
(lp675
g162
aS'you'
p676
aS'you'
p677
ag162
ag162
aS'it'
p678
aS'it'
p679
aS'it'
p680
aS'it'
p681
aS'it'
p682
aS'it'
p683
aS'you'
p684
aS'could'
p685
ag162
ag162
asS'amazing'
p686
(lp687
S'(amazing)'
p688
asS'beach'
p689
(lp690
S'with'
p691
asS"Standin'"
p692
(lp693
S'up,'
p694
asS'insecure'
p695
(lp696
S'cool'
p697
asS'swing'
p698
(lp699
S'this'
p700
asS'Will'
p701
(lp702
g144
asS'Haha,'
p703
(lp704
S'yeah,'
p705
asS'wrong'
p706
(lp707
S'<N>'
p708
asS'lay'
p709
(lp710
S'and'
p711
asS'law'
p712
(lp713
S'<N>'
p714
asS'All'
p715
(lp716
g162
ag162
ag162
aS'this'
p717
asS'Murmurs'
p718
(lp719
S'to'
p720
asS'ho,'
p721
(lp722
S'this'
p723
asS'appreciate'
p724
(lp725
S'the'
p726
asS'keeps'
p727
(lp728
S'this'
p729
aS'attracting'
p730
asS'Beyond'
p731
(lp732
S'trying'
p733
aS'from'
p734
asS'blind'
p735
(lp736
S'<N>'
p737
asS'the,'
p738
(lp739
S'Cleveland'
p740
aS'Cleveland'
p741
aS'Cleveland'
p742
aS'Cleveland'
p743
aS'Cleveland'
p744
aS'Cleveland'
p745
aS'Cleveland'
p746
aS'Cleveland'
p747
asS'down,'
p748
(lp749
S'<N>'
p750
asS'Ooooo'
p751
(lp752
g197
asg426
(lp753
S'it'
p754
ag162
ag162
ag162
ag162
ag162
ag162
asS'<START>'
p755
(lp756
S'You'
p757
aS'[Verse'
p758
aS'Gimme'
p759
aS'Yea'
p760
aS'[Kid'
p761
aS'This'
p762
aS'Ixnay'
p763
aS'Have'
p764
ag162
aS'[Chorus]'
p765
aS'Damn'
p766
ag649
aS'Ayyy,'
p767
aS'[Talking:]'
p768
aS'Focus'
p769
asS'Hit'
p770
(lp771
S"'em"
p772
asS'fix'
p773
(lp774
S'<N>'
p775
asS'exhibits'
p776
(lp777
S"couldn't"
p778
asg351
(lp779
S'pull'
p780
aS'off'
p781
asS'edits'
p782
(lp783
S'<N>'
p784
asS'fade'
p785
(lp786
S'away'
p787
asS'Plain-Pat,'
p788
(lp789
S'<N>'
p790
asS'then'
p791
(lp792
S"he's"
p793
aS'rebuild'
p794
aS'tilt'
p795
aS'<N>'
p796
aS'they'
p797
aS'my'
p798
ag382
asS'them'
p799
(lp800
S'trynna'
p801
ag1
aS'no'
p802
aS'down'
p803
aS'hoes'
p804
aS'on'
p805
aS"501's"
p806
asS'Kidz'
p807
(lp808
S'in'
p809
asS'safe'
p810
(lp811
S'for'
p812
asS'they'
p813
(lp814
S'think.'
p815
aS'fam,'
p816
aS'trunk'
p817
aS'go'
p818
aS'was'
p819
aS'Googled'
p820
aS'love'
p821
aS"ain't"
p822
aS'ready'
p823
aS'love'
p824
aS"don't"
p825
aS'would'
p826
aS'say'
p827
aS'used'
p828
aS'the'
p829
aS"can't"
p830
asS'JAG'
p831
(lp832
S'<N>'
p833
asS'one'
p834
(lp835
S'look'
p836
aS'hell'
p837
aS'wish'
p838
aS'into'
p839
aS'bad'
p840
aS'day'
p841
aS'hater'
p842
aS'is'
p843
aS'bright'
p844
aS'come'
p845
aS'that'
p846
aS'you'
p847
aS'eye'
p848
asS'whip.'
p849
(lp850
S'<N>'
p851
asS"writin'"
p852
(lp853
S'checks'
p854
asg583
(lp855
S'<N>'
p856
asS'went'
p857
(lp858
S'out'
p859
asg536
(lp860
S"I'm"
p861
aS"I'm"
p862
aS'(by'
p863
asS'mean'
p864
(lp865
g162
asS"turnin'"
p866
(lp867
S'lanes.'
p868
asS'dawg'
p869
(lp870
S'<N>'
p871
aS'what'
p872
aS'what'
p873
asS'spitfineawinedine,'
p874
(lp875
S'<N>'
p876
asg534
(lp877
S'got'
p878
aS'got'
p879
asS'gon'
p880
(lp881
S'take'
p882
asS'open'
p883
(lp884
S'mind.'
p885
aS'my'
p886
aS'your'
p887
aS'your'
p888
asS'at,'
p889
(lp890
S'at'
p891
aS'at'
p892
aS'at'
p893
asS'Rip,'
p894
(lp895
S'wit'
p896
asS'Baptize'
p897
(lp898
S'myself'
p899
asS'start,'
p900
(lp901
g162
asS'got'
p902
(lp903
S'talent'
p904
aS'my'
p905
aS'her'
p906
aS'my'
p907
aS'blue,'
p908
aS'my'
p909
aS'to'
p910
aS'me'
p911
aS'me'
p912
aS'the'
p913
aS'(we'
p914
aS'what'
p915
ag315
aS'me'
p916
aS'me'
p917
aS'me'
p918
aS'me'
p919
asS'Hold'
p920
(lp921
S'the'
p922
asS"'Till"
p923
(lp924
S'they'
p925
ag162
asS'ghost,'
p926
(lp927
S'holla'
p928
asS'free'
p929
(lp930
S'his'
p931
aS'his'
p932
aS'his'
p933
aS'his'
p934
aS'his'
p935
aS'his'
p936
aS'his'
p937
aS'with'
p938
aS'like'
p939
aS'since'
p940
asS'skin,'
p941
(lp942
S'baby-girl,'
p943
asS'Haave'
p944
(lp945
S'you'
p946
asS"Ridin'"
p947
(lp948
S'alongside'
p949
asg758
(lp950
S'1:]'
p951
aS'2:]'
p952
aS'1]'
p953
aS'2]'
p954
aS'1]'
p955
aS'2]'
p956
asS'Mickey'
p957
(lp958
S'Factz'
p959
asS'go,'
p960
(lp961
S'go,'
p962
aS'go,'
p963
aS'go,'
p964
aS'go,'
p965
aS'go'
p966
aS'go'
p967
aS'go,'
p968
aS'go'
p969
aS'go'
p970
aS'go,'
p971
aS'go'
p972
asS'creates'
p973
(lp974
S'that'
p975
asg959
(lp976
S'what'
p977
asS'dated,'
p978
(lp979
S"it's"
p980
asg484
(lp981
S'<N>'
p982
asS'Please'
p983
(lp984
S'<N>'
p985
aS'<N>'
p986
aS'<N>'
p987
aS'<N>'
p988
aS'<N>'
p989
asS'too)'
p990
(lp991
S'<N>'
p992
asS'Going'
p993
(lp994
S'back'
p995
aS'back'
p996
asg485
(lp997
S'(me'
p998
asS'comic'
p999
(lp1000
g516
asS'[Bridge:]'
p1001
(lp1002
S'<N>'
p1003
aS'<N>'
p1004
asS"C'mon"
p1005
(lp1006
S'feel'
p1007
asS'top'
p1008
(lp1009
S'<N>'
p1010
aS'if'
p1011
asS'girls'
p1012
(lp1013
S"don't"
p1014
ag162
aS'<N>'
p1015
aS'sing'
p1016
aS'want'
p1017
asS'scene.'
p1018
(lp1019
S'<N>'
p1020
asS'too'
p1021
(lp1022
S'shitty,'
p1023
aS'<N>'
p1024
aS'damn'
p1025
aS'<N>'
p1026
asS'easy,'
p1027
(lp1028
g1
asS'kno'
p1029
(lp1030
S'if'
p1031
asS"hearin'"
p1032
(lp1033
S'now'
p1034
asg663
(lp1035
S'<N>'
p1036
aS'<N>'
p1037
aS'<N>'
p1038
aS'<N>'
p1039
asS'matter'
p1040
(lp1041
S'who'
p1042
aS'who'
p1043
aS'what'
p1044
asS'See'
p1045
(lp1046
g162
aS'Cudi'
p1047
aS'the'
p1048
ag162
aS'right'
p1049
asS'silly'
p1050
(lp1051
S'game'
p1052
asS'gives'
p1053
(lp1054
S'me'
p1055
asS'Holla'
p1056
(lp1057
S'at'
p1058
asS'sees'
p1059
(lp1060
S'the'
p1061
asS'mind'
p1062
(lp1063
g874
aS'(what,'
p1064
aS'at'
p1065
aS'at'
p1066
aS'at'
p1067
aS'at'
p1068
aS'in'
p1069
aS'in'
p1070
aS'in'
p1071
aS'<N>'
p1072
aS'<N>'
p1073
aS'<N>'
p1074
aS'<N>'
p1075
aS'is'
p1076
aS'is'
p1077
aS'is'
p1078
aS'<N>'
p1079
aS'runs'
p1080
aS'like'
p1081
asS'mine'
p1082
(lp1083
S'<N>'
p1084
aS'<N>'
p1085
asS'talking'
p1086
(lp1087
S'about'
p1088
asS'shy)'
p1089
(lp1090
S'<N>'
p1091
asS'infront'
p1092
(lp1093
S'of'
p1094
asS'rap'
p1095
(lp1096
S'wise'
p1097
asS'Instead'
p1098
(lp1099
S'of'
p1100
asS'Blinds'
p1101
(lp1102
S'of'
p1103
asS'seek'
p1104
(lp1105
S'<N>'
p1106
asS'Then'
p1107
(lp1108
S'maybe'
p1109
asS'realm'
p1110
(lp1111
S'if'
p1112
asS"Let's"
p1113
(lp1114
S'get'
p1115
aS'just'
p1116
aS'have'
p1117
aS'have'
p1118
asS'chest'
p1119
(lp1120
S'<N>'
p1121
asS'They'
p1122
(lp1123
S'like'
p1124
aS'say'
p1125
aS"don't"
p1126
aS'get'
p1127
aS'love'
p1128
aS'battle-ow-ow,'
p1129
aS'flow'
p1130
ag785
aS'say'
p1131
aS"can't"
p1132
aS'even'
p1133
aS'got'
p1134
aS'got'
p1135
asS'sleeper'
p1136
(lp1137
S'you'
p1138
asS'Ask'
p1139
(lp1140
S'around'
p1141
aS'me'
p1142
asS'shining'
p1143
(lp1144
S'man'
p1145
asS'even'
p1146
(lp1147
S'made'
p1148
aS'see'
p1149
aS'think'
p1150
aS'in'
p1151
aS'come'
p1152
aS'with'
p1153
aS'hear'
p1154
aS'gatta'
p1155
aS'tell'
p1156
aS'gatta'
p1157
aS'if'
p1158
asS"girl's"
p1159
(lp1160
g1062
asS'nobody'
p1161
(lp1162
S'even'
p1163
asS'complexed'
p1164
(lp1165
S'just'
p1166
asS'shall'
p1167
(lp1168
S'receive'
p1169
asS'[Chorus'
p1170
(lp1171
S'2x]'
p1172
aS'3x]'
p1173
aS'x4]'
p1174
aS'2x]'
p1175
asS'see.'
p1176
(lp1177
S'<N>'
p1178
asS'cool.'
p1179
(lp1180
S'<N>'
p1181
aS'<N>'
p1182
aS'<N>'
p1183
aS'<N>'
p1184
asS'real,'
p1185
(lp1186
S'yeah'
p1187
asg1130
(lp1188
S'is'
p1189
asS'dog'
p1190
(lp1191
S'<N>'
p1192
asS'doe'
p1193
(lp1194
S'low'
p1195
asS'Wowie'
p1196
(lp1197
S'<N>'
p1198
aS'<N>'
p1199
aS'<N>'
p1200
aS'you'
p1201
aS'<N>'
p1202
aS'<N>'
p1203
aS'<N>'
p1204
aS'<N>'
p1205
aS'<N>'
p1206
aS'<N>'
p1207
asS'came'
p1208
(lp1209
S'here'
p1210
aS'in'
p1211
aS'in'
p1212
asS'ending'
p1213
(lp1214
S'so'
p1215
asS'Laid'
p1216
(lp1217
S'back'
p1218
asg548
(lp1219
S'on,'
p1220
asS'Listen.'
p1221
(lp1222
S'<N>'
p1223
asS'em,'
p1224
(lp1225
S'model'
p1226
ag1
asS'explain'
p1227
(lp1228
S'about'
p1229
aS'everytime'
p1230
asS'rich'
p1231
(lp1232
S'feel'
p1233
asS'do'
p1234
(lp1235
S'you'
p1236
aS'you'
p1237
aS'you'
p1238
aS'it'
p1239
aS'what'
p1240
aS'so'
p1241
aS'is'
p1242
aS"boo?'"
p1243
aS'all'
p1244
aS'my'
p1245
aS'my'
p1246
asS'honda'
p1247
(lp1248
S'with'
p1249
asS'stop'
p1250
(lp1251
S'the'
p1252
aS'the'
p1253
aS"'em"
p1254
asS'coast'
p1255
(lp1256
S'so'
p1257
asS'about,'
p1258
(lp1259
g1
asS'vicariously'
p1260
(lp1261
S'<N>'
p1262
asg1080
(lp1263
g162
asS'guts,'
p1264
(lp1265
S'no'
p1266
asS'Over'
p1267
(lp1268
S'there,'
p1269
asS'bad'
p1270
(lp1271
S'dimes.'
p1272
aS'bitch'
p1273
aS'bitches'
p1274
asS'screw-face'
p1275
(lp1276
S'niggaz,'
p1277
asS'wannabe'
p1278
(lp1279
S'<N>'
p1280
asS'them,'
p1281
(lp1282
g162
ag162
asS'outlives'
p1283
(lp1284
S'time.'
p1285
asS'into,'
p1286
(lp1287
g1
asS'new,'
p1288
(lp1289
g284
asS'John'
p1290
(lp1291
S'Legend'
p1292
asS'face,'
p1293
(lp1294
S'never'
p1295
asg787
(lp1296
S'he'
p1297
asg863
(lp1298
S'your'
p1299
asS'we'
p1300
(lp1301
S"gettin'"
p1302
aS'play,'
p1303
aS'smile'
p1304
aS'go'
p1305
aS'got'
p1306
aS"don't"
p1307
asS'however'
p1308
(lp1309
S'you'
p1310
aS'you'
p1311
aS'you'
p1312
aS'you'
p1313
aS'you'
p1314
aS'you'
p1315
aS'you'
p1316
aS'you'
p1317
asS'wear'
p1318
(lp1319
g529
asS'censorship'
p1320
(lp1321
S'that'
p1322
asS'cop'
p1323
(lp1324
S'<N>'
p1325
asS'country'
p1326
(lp1327
S'till'
p1328
aS'ass'
p1329
asS'ill'
p1330
(lp1331
S'<N>'
p1332
asS'Focus'
p1333
(lp1334
S'on'
p1335
aS'baby'
p1336
asS'Laura'
p1337
(lp1338
S'<N>'
p1339
asS'faces'
p1340
(lp1341
S'when'
p1342
asS'confronted'
p1343
(lp1344
S'would'
p1345
asS'exhibit'
p1346
(lp1347
S'<N>'
p1348
asS'tough'
p1349
(lp1350
S'love'
p1351
asS'vexed'
p1352
(lp1353
S'<N>'
p1354
asg579
(lp1355
S'<N>'
p1356
asS'boys,'
p1357
(lp1358
S'<N>'
p1359
aS'<N>'
p1360
asS'now.'
p1361
(lp1362
S'<N>'
p1363
asS"I've"
p1364
(lp1365
S'seen'
p1366
aS'lived'
p1367
asS'been'
p1368
(lp1369
S'too'
p1370
ag695
aS'to'
p1371
aS'to'
p1372
aS'to'
p1373
aS'to'
p1374
aS'to'
p1375
aS'to'
p1376
aS'to'
p1377
asS'now?'
p1378
(lp1379
S'<N>'
p1380
aS'<N>'
p1381
aS'<N>'
p1382
ag197
asS'deep,'
p1383
(lp1384
S'<N>'
p1385
asS'leech'
p1386
(lp1387
S'<N>'
p1388
asS'life'
p1389
(lp1390
S'he'
p1391
aS'will'
p1392
aS'you'
p1393
aS'dawg'
p1394
aS'dawg'
p1395
asS'drugs'
p1396
(lp1397
S'to'
p1398
asS'cieling'
p1399
(lp1400
S'man,'
p1401
asS'CD'
p1402
(lp1403
S'with'
p1404
asS'mistakes...yes'
p1405
(lp1406
S'<N>'
p1407
asS'catch'
p1408
(lp1409
S'all'
p1410
aS'it'
p1411
asS"Can't"
p1412
(lp1413
S'give'
p1414
aS'show'
p1415
aS'give'
p1416
aS'hear'
p1417
ag1161
asS'(acting'
p1418
(lp1419
S'like'
p1420
asS'Into'
p1421
(lp1422
g315
asS'dub,'
p1423
(lp1424
S'maybe'
p1425
asS'Cleveland'
p1426
(lp1427
S'<N>'
p1428
aS'is'
p1429
aS'is'
p1430
aS'is'
p1431
aS'is'
p1432
aS'is'
p1433
aS'is'
p1434
aS'is'
p1435
aS'is'
p1436
aS'is'
p1437
aS'is'
p1438
aS'is'
p1439
aS'is'
p1440
aS'is'
p1441
aS'is'
p1442
aS'is'
p1443
aS'is'
p1444
aS'is'
p1445
aS'is'
p1446
aS'is'
p1447
aS'is'
p1448
aS'is'
p1449
aS'is'
p1450
aS'is'
p1451
aS'is'
p1452
aS'is'
p1453
aS'city'
p1454
aS'what'
p1455
aS'<N>'
p1456
asS'stopping'
p1457
(lp1458
S'<N>'
p1459
asS'Call'
p1460
(lp1461
S'me'
p1462
asS'[Chorus]'
p1463
(lp1464
S'<N>'
p1465
aS'<N>'
p1466
aS'<N>'
p1467
aS'<N>'
p1468
aS'<N>'
p1469
aS'<N>'
p1470
asS'precede'
p1471
(lp1472
S'the'
p1473
asS'over,'
p1474
(lp1475
S'<N>'
p1476
asS'On'
p1477
(lp1478
S'the'
p1479
asS'is'
p1480
(lp1481
S'more'
p1482
aS'why'
p1483
aS'that,'
p1484
ag738
aS'the'
p1485
aS'that,'
p1486
aS'the,'
p1487
aS'the'
p1488
aS'that,'
p1489
aS'the,'
p1490
aS'the'
p1491
aS'that,'
p1492
aS'the,'
p1493
aS'my'
p1494
aS'my'
p1495
aS'that,'
p1496
aS'the,'
p1497
aS'the'
p1498
aS'that,'
p1499
aS'the,'
p1500
aS'the'
p1501
aS'that,'
p1502
aS'the,'
p1503
aS'the'
p1504
aS'that,'
p1505
aS'the,'
p1506
aS'my'
p1507
ag1021
ag630
aS'deep'
p1508
aS'feeling'
p1509
ag1143
aS'my'
p1510
aS'my'
p1511
aS'what'
p1512
aS'to'
p1513
aS'how'
p1514
aS'to'
p1515
aS'how'
p1516
aS'above'
p1517
aS'the'
p1518
aS'how'
p1519
aS'how'
p1520
aS'how'
p1521
aS'tight'
p1522
aS'my'
p1523
aS'all'
p1524
aS'try'
p1525
aS'all'
p1526
aS'hazy,'
p1527
aS'so'
p1528
aS'so'
p1529
aS'just'
p1530
aS'left'
p1531
aS'so'
p1532
asS'it'
p1533
(lp1534
g1361
aS'up'
p1535
ag318
aS'like'
p1536
aS'<N>'
p1537
aS'<N>'
p1538
aS'on'
p1539
aS'did'
p1540
aS'sounds'
p1541
aS'feels'
p1542
ag1190
aS'sounds'
p1543
aS'and'
p1544
aS'<N>'
p1545
aS'or'
p1546
aS'sounds'
p1547
aS'sounds'
p1548
aS'sounds'
p1549
aS'yummzsayin'
p1550
aS'would'
p1551
aS'simple'
p1552
aS'complicated'
p1553
aS'with'
p1554
aS'til'
p1555
aS'do'
p1556
aS'(feel'
p1557
aS'do'
p1558
aS'right'
p1559
aS'do'
p1560
aS'right'
p1561
aS'even'
p1562
aS'back'
p1563
asS'im'
p1564
(lp1565
S'so'
p1566
asS'blame,'
p1567
(lp1568
S'blame,'
p1569
aS'blame...'
p1570
asS'in'
p1571
(lp1572
S'their'
p1573
aS'my'
p1574
aS'my'
p1575
aS'the'
p1576
aS'my'
p1577
aS'501'
p1578
aS'the'
p1579
aS'the'
p1580
aS'the'
p1581
aS'the'
p1582
aS'the'
p1583
aS'search'
p1584
aS'search'
p1585
aS'search'
p1586
aS'the'
p1587
aS'<N>'
p1588
aS'hell,'
p1589
aS'peace'
p1590
aS'peace'
p1591
aS'peace'
p1592
aS'peace'
p1593
aS'peace'
p1594
aS'the'
p1595
aS'with'
p1596
aS'the'
p1597
aS'the'
p1598
aS'from'
p1599
aS'the'
p1600
aS'from'
p1601
aS'the'
p1602
aS'all'
p1603
aS'the'
p1604
aS'paradise,'
p1605
aS'the'
p1606
aS'the'
p1607
aS'the'
p1608
aS'the'
p1609
aS'the'
p1610
aS'disguise'
p1611
aS'the'
p1612
aS'my'
p1613
asg322
(lp1614
g403
asS'if'
p1615
(lp1616
g162
aS'you'
p1617
aS'<N>'
p1618
aS'you'
p1619
aS'you'
p1620
ag162
ag162
ag162
ag315
aS"it's"
p1621
ag315
ag162
ag162
ag162
ag162
aS'you'
p1622
ag162
ag162
ag162
ag162
asg276
(lp1623
S"Good.'"
p1624
asS'heart,'
p1625
(lp1626
S'from'
p1627
aS'no'
p1628
asS'things'
p1629
(lp1630
S'will'
p1631
aS'that'
p1632
asS'make'
p1633
(lp1634
g315
ag315
aS'hit'
p1635
ag315
ag315
ag315
ag315
aS'no'
p1636
aS'it'
p1637
aS'it'
p1638
ag1405
aS'you'
p1639
aS'my'
p1640
ag315
asS'Stop'
p1641
(lp1642
g852
asS'"I'
p1643
(lp1644
S'get'
p1645
aS'be'
p1646
aS'be'
p1647
asg1624
(lp1648
S'<N>'
p1649
asS'complex'
p1650
(lp1651
S'like'
p1652
asS'saluted'
p1653
(lp1654
S'<N>'
p1655
aS'<N>'
p1656
aS'(Yeah,'
p1657
aS'<N>'
p1658
asS"'Hey,"
p1659
(lp1660
S'What'
p1661
asS'deceased,'
p1662
(lp1663
S'<N>'
p1664
asS'Maybe'
p1665
(lp1666
S'if'
p1667
ag315
asg1605
(lp1668
S'all'
p1669
asS'made,'
p1670
(lp1671
S'made'
p1672
asS'smokes'
p1673
(lp1674
g315
asS'cool,'
p1675
(lp1676
S'cool'
p1677
aS"you're"
p1678
aS'fuck'
p1679
asS'the'
p1680
(lp1681
g1018
aS'scene'
p1682
aS'clubs,'
p1683
aS'top...'
p1684
aS'50'
p1685
aS'magazine,'
p1686
aS'low.'
p1687
aS'reason'
p1688
aS'reason'
p1689
aS'reason'
p1690
aS'time'
p1691
aS'girlies'
p1692
aS'double'
p1693
aS"O'Jays"
p1694
ag849
aS'evenin\'."'
p1695
aS'land,'
p1696
aS'song'
p1697
aS'low.'
p1698
aS'reason'
p1699
aS'reason'
p1700
aS'reason'
p1701
aS'noise,'
p1702
ag1357
aS'brew'
p1703
aS'old'
p1704
aS'steps'
p1705
aS'old'
p1706
aS'water'
p1707
aS'noise,'
p1708
aS'boys,'
p1709
ag1399
aS'man,'
p1710
aS'club'
p1711
aS'mall,'
p1712
aS'bapes'
p1713
aS'feet,'
p1714
aS'devil'
p1715
aS'clown,'
p1716
aS'mix'
p1717
aS'illi,'
p1718
aS'navy'
p1719
aS'ho'
p1720
ag894
aS'Heroes'
p1721
aS'Gym'
p1722
aS'art'
p1723
aS'timid'
p1724
aS'bubble,'
p1725
aS'number'
p1726
aS'river'
p1727
ag407
ag1110
aS'underdog,'
p1728
aS'clear'
p1729
aS'one,'
p1730
aS'(?)'
p1731
aS'Hall'
p1732
aS'day'
p1733
ag431
aS'move'
p1734
aS'shade'
p1735
ag1389
ag384
aS'temple'
p1736
aS'way'
p1737
ag1275
aS'future'
p1738
aS'jewels'
p1739
ag205
aS'world'
p1740
aS'moon'
p1741
aS'gates'
p1742
ag157
aS'things'
p1743
aS'evils'
p1744
aS'bullshit'
p1745
aS'nonbelievers,'
p1746
aS'front'
p1747
aS'ones'
p1748
aS'martian'
p1749
aS'martian'
p1750
aS'martian'
p1751
aS'martian'
p1752
aS'martian'
p1753
aS'martian'
p1754
aS'martian'
p1755
aS'martian'
p1756
aS'martian'
p1757
aS'whole'
p1758
ag1185
ag1349
aS'real'
p1759
aS'martian'
p1760
aS'martian'
p1761
aS'martian'
p1762
aS'martian'
p1763
aS'martian'
p1764
aS'martian'
p1765
aS'feeling'
p1766
aS'evils'
p1767
aS'night'
p1768
ag1213
aS'visions'
p1769
aS'night'
p1770
aS'world'
p1771
aS'world'
p1772
aS'world'
p1773
aS'world'
p1774
aS'mind'
p1775
aS'sky'
p1776
aS'moon'
p1777
aS'moon'
p1778
aS'moon'
p1779
aS'moon'
p1780
aS'dark'
p1781
aS'past'
p1782
aS'ones'
p1783
aS'last'
p1784
aS'mix'
p1785
aS'Maui'
p1786
ag689
aS'sand'
p1787
aS'Hawaiian'
p1788
aS'beat'
p1789
aS'night'
p1790
aS'day'
p1791
aS'world'
p1792
aS'states'
p1793
aS'Maui'
p1794
aS'sex'
p1795
aS'night'
p1796
aS'night)'
p1797
aS'fight'
p1798
aS'one'
p1799
aS'bitch'
p1800
aS'Grammys'
p1801
aS'one'
p1802
aS'peace'
p1803
aS'first'
p1804
aS'shoes'
p1805
aS'cool'
p1806
aS'roof'
p1807
aS'rag'
p1808
aS'part'
p1809
ag1320
aS'only'
p1810
aS'sun'
p1811
aS'hoes'
p1812
ag712
aS'left'
p1813
aS'hoes'
p1814
aS'name'
p1815
aS'bake'
p1816
ag1247
aS'30'
p1817
aS'past'
p1818
ag831
aS'shoes'
p1819
aS'cool'
p1820
aS'roof'
p1821
aS'while'
p1822
aS'last'
p1823
aS'boots'
p1824
aS'fur'
p1825
aS'demons'
p1826
ag1625
aS'soul'
p1827
aS'lord'
p1828
aS'lord'
p1829
aS'funeral'
p1830
aS"world'll"
p1831
aS'love'
p1832
aS'heart,'
p1833
aS'top'
p1834
aS'lord'
p1835
aS'lord'
p1836
aS'funeral'
p1837
aS'lord'
p1838
aS'lord'
p1839
aS'funeral'
p1840
aS'funeral,'
p1841
aS'funeral)'
p1842
aS'other'
p1843
aS'moment'
p1844
aS'violins'
p1845
aS'beat'
p1846
asg1813
(lp1847
S'<N>'
p1848
aS'<N>'
p1849
asg1166
(lp1850
S'like'
p1851
aS'miss'
p1852
aS'to'
p1853
aS'to'
p1854
ag709
aS'like'
p1855
aS'kill'
p1856
aS'my'
p1857
aS'the'
p1858
aS'know'
p1859
aS'know'
p1860
aS'know'
p1861
aS'focused'
p1862
aS'ready'
p1863
asS'yea'
p1864
(lp1865
S'mami'
p1866
asg1611
(lp1867
S'but'
p1868
asg1277
(lp1869
S'whatchu'
p1870
asg1714
(lp1871
S'<N>'
p1872
asS'yet'
p1873
(lp1874
g686
asS'Happy'
p1875
(lp1876
S'unites'
p1877
asS'had'
p1878
(lp1879
g315
aS'are'
p1880
asS'topical'
p1881
(lp1882
S'question'
p1883
asS'save'
p1884
(lp1885
S'my'
p1886
aS'my'
p1887
asg314
(lp1888
g315
asg688
(lp1889
S'<N>'
p1890
asS'Try'
p1891
(lp1892
S'to'
p1893
asS'discreet'
p1894
(lp1895
S'<N>'
p1896
asg605
(lp1897
S'<N>'
p1898
asS'dreams'
p1899
(lp1900
S'he'
p1901
asS'cooler'
p1902
(lp1903
S'than'
p1904
aS'than'
p1905
asS'50'
p1906
(lp1907
S'ways'
p1908
aS'ways'
p1909
aS'ways'
p1910
aS'ways'
p1911
aS'ways...'
p1912
aS'ways'
p1913
aS'ways'
p1914
asg1705
(lp1915
g1092
asS'night'
p1916
(lp1917
S'(what,'
p1918
aS'<N>'
p1919
aS'<N>'
p1920
aS'<N>'
p1921
aS'(at,'
p1922
aS'<N>'
p1923
aS'<N>'
p1924
aS'(at,'
p1925
ag197
aS'<N>'
p1926
aS'<N>'
p1927
aS'<N>'
p1928
aS'<N>'
p1929
ag169
aS'<N>'
p1930
asS'Nikes'
p1931
(lp1932
S'(what,'
p1933
asS"(fuckin'"
p1934
(lp1935
S'bounce)'
p1936
aS'bounce)'
p1937
asS'right'
p1938
(lp1939
S'<N>'
p1940
aS'(hold'
p1941
aS'homey'
p1942
aS'homey'
p1943
aS'through'
p1944
asS'old'
p1945
(lp1946
S"school's"
p1947
aS'man,'
p1948
aS'rules,'
p1949
aS'fools,'
p1950
asS'deal'
p1951
(lp1952
S'wit'
p1953
asS'people'
p1954
(lp1955
S'around'
p1956
asS'somehow'
p1957
(lp1958
S'seeing'
p1959
asS'born'
p1960
(lp1961
S'to'
p1962
asg1922
(lp1963
g889
aS'at,'
p1964
asg598
(lp1965
S'so'
p1966
asS'for'
p1967
(lp1968
g1270
aS'they'
p1969
aS'that'
p1970
aS'the'
p1971
ag315
aS'peace'
p1972
ag727
ag315
ag315
aS'thrills'
p1973
ag315
ag315
aS'the'
p1974
aS'my'
p1975
aS'peace'
p1976
aS'you'
p1977
aS'the'
p1978
aS'you'
p1979
aS'the'
p1980
aS'you'
p1981
aS'the'
p1982
aS'the'
p1983
aS'the'
p1984
aS'the'
p1985
asS'bottom'
p1986
(lp1987
S'jeans'
p1988
asS'Blessing'
p1989
(lp1990
S'in'
p1991
asS'ice'
p1992
(lp1993
S'cream'
p1994
asS'Let'
p1995
(lp1996
S'me'
p1997
asS'He'
p1998
(lp1999
S'looked'
p2000
aS'seems'
p2001
ag1673
ag334
asS'lonely...'
p2002
(lp2003
S'guy'
p2004
asS'shaker'
p2005
(lp2006
S'pictures,'
p2007
asS'wild)'
p2008
(lp2009
S'<N>'
p2010
aS'<N>'
p2011
asg761
(lp2012
S'Cudi:]'
p2013
aS'Cudi:]'
p2014
aS'Cudi:]'
p2015
asS'Project'
p2016
(lp2017
S'Genius'
p2018
asS'peep'
p2019
(lp2020
S'(what,'
p2021
asS'super'
p2022
(lp2023
g1675
aS'duper'
p2024
aS'duper'
p2025
aS'duper'
p2026
aS'duper'
p2027
aS'duper'
p2028
aS'duper'
p2029
aS'duper'
p2030
asS'Think'
p2031
(lp2032
S'twice,'
p2033
aS'twice,'
p2034
asS'powpow'
p2035
(lp2036
S'<N>'
p2037
asg1713
(lp2038
S'on'
p2039
asg1023
(lp2040
S'not'
p2041
asS'commit'
p2042
(lp2043
S'suicide'
p2044
aS'suicide'
p2045
asS'Still'
p2046
(lp2047
S'wife'
p2048
asS'Use'
p2049
(lp2050
S'ta'
p2051
asg1687
(lp2052
S'<N>'
p2053
aS'<N>'
p2054
asS'Make'
p2055
(lp2056
S'you'
p2057
asS'Cuz'
p2058
(lp2059
S'they'
p2060
asS'down'
p2061
(lp2062
S'and'
p2063
aS'and'
p2064
aS'bitch,'
p2065
aS'<N>'
p2066
aS'<N>'
p2067
aS'<N>'
p2068
asS'Unless'
p2069
(lp2070
S'you'
p2071
asg1798
(lp2072
S'<N>'
p2073
asg1737
(lp2074
S'(what,'
p2075
aS'<N>'
p2076
aS'<N>'
p2077
asS'call'
p2078
(lp2079
S'me'
p2080
aS'super'
p2081
aS'me'
p2082
aS"'cause"
p2083
asg819
(lp2084
S"doubtin'"
p2085
ag1281
ag1960
aS'borin'
p2086
aS'simple'
p2087
aS'jerk'
p2088
ag315
aS'crazy'
p2089
aS'starving'
p2090
aS'working'
p2091
aS'in'
p2092
asS'head'
p2093
(lp2094
S'start'
p2095
asS"rhymin'"
p2096
(lp2097
g162
asS'form'
p2098
(lp2099
g315
asS'magazine.'
p2100
(lp2101
S'<N>'
p2102
asg1686
(lp2103
S'<N>'
p2104
asS'so,'
p2105
(lp2106
S'oh'
p2107
asS'(skin'
p2108
(lp2109
S'is'
p2110
asS'hear'
p2111
(lp2112
g1533
ag315
aS'me'
p2113
aS'me)'
p2114
aS'me'
p2115
aS'what'
p2116
asS'true'
p2117
(lp2118
S'god'
p2119
asS'what)'
p2120
(lp2121
S'<N>'
p2122
aS'<N>'
p2123
aS'<N>'
p2124
aS'<N>'
p2125
aS'<N>'
p2126
aS'<N>'
p2127
aS'<N>'
p2128
aS'<N>'
p2129
aS'<N>'
p2130
aS'<N>'
p2131
aS'<N>'
p2132
aS'<N>'
p2133
aS'<N>'
p2134
aS'<N>'
p2135
aS'<N>'
p2136
aS'<N>'
p2137
aS'<N>'
p2138
aS'<N>'
p2139
asS'(Wild'
p2140
(lp2141
S'wild'
p2142
aS'wild'
p2143
asS'inside'
p2144
(lp2145
S'the'
p2146
asS'D-o-l-o'
p2147
(lp2148
S'<N>'
p2149
asg207
(lp2150
S'me'
p2151
asS'[Fart'
p2152
(lp2153
S'sound,'
p2154
asg1842
(lp2155
g197
asS'tryna'
p2156
(lp2157
S'play'
p2158
asS'toss'
p2159
(lp2160
S'and'
p2161
asS"rollin'"
p2162
(lp2163
S'in'
p2164
aS'in'
p2165
asg469
(lp2166
S'give'
p2167
aS'show'
p2168
aS'give'
p2169
aS'hear'
p2170
asS'trip'
p2171
(lp2172
S'to'
p2173
aS'<N>'
p2174
asS'shit'
p2175
(lp2176
S"ain't"
p2177
aS'that'
p2178
aS'<N>'
p2179
aS'(fancy'
p2180
aS'down'
p2181
aS'so'
p2182
aS'is'
p2183
asg928
(lp2184
S'at'
p2185
asS'no'
p2186
(lp2187
S'city'
p2188
aS'balcony.'
p2189
ag519
aS'fair'
p2190
aS'one'
p2191
aS"glory'"
p2192
aS'mistakes,'
p2193
ag782
aS'sight'
p2194
aS'stunnas'
p2195
aS'love'
p2196
asS'petite,'
p2197
(lp2198
S'<N>'
p2199
asS'when'
p2200
(lp2201
S"I'm"
p2202
ag162
aS"I'm"
p2203
ag162
ag162
ag162
aS'you'
p2204
asg1683
(lp2205
g1
asg1555
(lp2206
S"it's"
p2207
ag162
asS'smell'
p2208
(lp2209
S'good'
p2210
asS'roll'
p2211
(lp2212
S'back'
p2213
aS'<N>'
p2214
asS'felt'
p2215
(lp2216
S'like'
p2217
asS'floatin,'
p2218
(lp2219
S'your'
p2220
asS'Emile'
p2221
(lp2222
S'what'
p2223
asS'Madness'
p2224
(lp2225
S'to'
p2226
asS'faster'
p2227
(lp2228
S'when'
p2229
asS'guy."'
p2230
(lp2231
S'<N>'
p2232
asS'Wit'
p2233
(lp2234
g202
asS'(you'
p2235
(lp2236
S'were'
p2237
asg1691
(lp2238
S'while,'
p2239
aS'to'
p2240
aS'takes'
p2241
asS'So'
p2242
(lp2243
S'the'
p2244
ag162
aS'if'
p2245
ag410
aS"don't"
p2246
aS'move'
p2247
aS'move'
p2248
aS"I'm,"
p2249
aS"I'm,"
p2250
aS'all'
p2251
aS'please'
p2252
asS'songs'
p2253
(lp2254
S'to'
p2255
aS'for'
p2256
aS'for'
p2257
aS'for'
p2258
asg2180
(lp2259
S'shit)'
p2260
asS'pictures,'
p2261
(lp2262
g1
ag2156
asS'dance'
p2263
(lp2264
S'in'
p2265
asS'focus'
p2266
(lp2267
g869
aS'is'
p2268
asS'skin'
p2269
(lp2270
S'is'
p2271
asg2044
(lp2272
S"tryin'"
p2273
aS"tryin'"
p2274
asS'zone'
p2275
(lp2276
S'and'
p2277
asg558
(lp2278
S'at'
p2279
asS'peep,'
p2280
(lp2281
g2019
asS"Ain't"
p2282
(lp2283
S"gon'"
p2284
aS"gon'"
p2285
asS'turn,'
p2286
(lp2287
g162
asS'Bury'
p2288
(lp2289
S'me'
p2290
asS'Day'
p2291
(lp2292
S'and'
p2293
aS'and'
p2294
asS'(Feel'
p2295
(lp2296
S'the'
p2297
asg2088
(lp2298
S'to'
p2299
asg759
(lp2300
S'more,'
p2301
asS'Where'
p2302
(lp2303
S'did'
p2304
asS"a'ight?,"
p2305
(lp2306
S'<N>'
p2307
asS'cool'
p2308
(lp2309
S'as'
p2310
aS'<N>'
p2311
aS'<N>'
p2312
aS'<N>'
p2313
aS'beat'
p2314
aS'beat'
p2315
asg1155
(lp2316
S'tell'
p2317
aS'nigga'
p2318
aS'tell'
p2319
aS'nigga'
p2320
asS'dim'
p2321
(lp2322
S'lit'
p2323
asS'Just'
p2324
(lp2325
S'for'
p2326
aS'to'
p2327
aS'to'
p2328
aS'like'
p2329
asg1540
(lp2330
g427
aS'but'
p2331
aS'you'
p2332
asS'die'
p2333
(lp2334
S'today'
p2335
aS'before'
p2336
aS'before'
p2337
aS'before'
p2338
aS'before'
p2339
aS'before'
p2340
aS'before'
p2341
asS'magnet'
p2342
(lp2343
S'keeps'
p2344
asg2004
(lp2345
S'<N>'
p2346
aS'to'
p2347
asg730
(lp2348
S'me,'
p2349
asS'sign'
p2350
(lp2351
S'(that'
p2352
asS'lame...'
p2353
(lp2354
g1
asS'run'
p2355
(lp2356
S'passed'
p2357
aS'but'
p2358
asg1816
(lp2359
S'on'
p2360
asS'damn(?),'
p2361
(lp2362
S'<N>'
p2363
asS'Honolulu'
p2364
(lp2365
S'<N>'
p2366
aS'<N>'
p2367
asS'saw.'
p2368
(lp2369
S'<N>'
p2370
asS'Along'
p2371
(lp2372
S'with'
p2373
asS'appeal'
p2374
(lp2375
S'<N>'
p2376
asS'Me'
p2377
(lp2378
S'and'
p2379
asS'Crutching'
p2380
(lp2381
S'your'
p2382
asg1830
(lp2383
S'<N>'
p2384
aS'<N>'
p2385
aS"(I'm"
p2386
asS'understanding'
p2387
(lp2388
S'him'
p2389
asg1707
(lp2390
S'fountain,'
p2391
asS'alone'
p2392
(lp2393
S'through'
p2394
aS'way'
p2395
asS'say,'
p2396
(lp2397
S'<N>'
p2398
aS'<N>'
p2399
aS'<N>'
p2400
aS"nothin'"
p2401
asS'My'
p2402
(lp2403
S'heart'
p2404
aS'nigga'
p2405
aS'nigga'
p2406
aS'nigga'
p2407
aS'endeavors'
p2408
aS'mind'
p2409
aS'swag,'
p2410
aS'swag,'
p2411
aS'heart'
p2412
aS'mind'
p2413
aS'heart'
p2414
asg313
(lp2415
S'(never'
p2416
asS'Travie'
p2417
(lp2418
S'<N>'
p2419
asS'Back,'
p2420
(lp2421
S'back'
p2422
asS'Travis'
p2423
(lp2424
S'what'
p2425
asS'so...'
p2426
(lp2427
S'<N>'
p2428
asg498
(lp2429
S"it's"
p2430
aS"it's"
p2431
aS"it's"
p2432
aS"it's"
p2433
asS'pillow'
p2434
(lp2435
S'talk'
p2436
aS'talk'
p2437
asg1128
(lp2438
g315
aS'me'
p2439
ag1224
aS'<N>'
p2440
aS'me'
p2441
aS'me'
p2442
aS'me'
p2443
aS'her'
p2444
aS'<N>'
p2445
aS'yo'
p2446
ag721
asS"It's"
p2447
(lp2448
S'kind'
p2449
aS'all'
p2450
ag315
asS'When'
p2451
(lp2452
S'the'
p2453
aS'my'
p2454
ag162
ag162
ag162
asS'[repeat'
p2455
(lp2456
S'x4]'
p2457
asS'fake'
p2458
(lp2459
S'so'
p2460
aS'love'
p2461
asS'red'
p2462
(lp2463
g277
asg2091
(lp2464
S'with'
p2465
asS'dude'
p2466
(lp2467
S'<N>'
p2468
aS'<N>'
p2469
aS'<N>'
p2470
aS'<N>'
p2471
asS'by'
p2472
(lp2473
S'what'
p2474
aS'my'
p2475
aS'my'
p2476
aS'the'
p2477
aS'Jag'
p2478
aS'your'
p2479
asS'live'
p2480
(lp2481
S'by'
p2482
aS'it,'
p2483
aS'it'
p2484
asS'nigga,'
p2485
(lp2486
S"it's"
p2487
aS'Cudi'
p2488
asg2335
(lp2489
S'the'
p2490
asS"Y'all"
p2491
(lp2492
g2305
asg1711
(lp2493
g748
asg266
(lp2494
S'no'
p2495
asS'drown'
p2496
(lp2497
S'in,'
p2498
aS'in'
p2499
asS'fly'
p2500
(lp2501
g2308
asS'and,'
p2502
(lp2503
g1
asS'niggas'
p2504
(lp2505
S'sell'
p2506
aS'sell'
p2507
aS'they'
p2508
aS"thinkin'"
p2509
aS"ain't"
p2510
aS'thought'
p2511
ag1086
aS'what'
p2512
asS'soul'
p2513
(lp2514
S'cannot'
p2515
ag1951
aS'<N>'
p2516
ag1378
aS'now?'
p2517
aS'you'
p2518
aS'to'
p2519
aS'to'
p2520
aS'to'
p2521
aS'to'
p2522
aS'to'
p2523
aS'take'
p2524
asS'wrong,'
p2525
(lp2526
S'like'
p2527
asS'Down'
p2528
(lp2529
S'and'
p2530
aS'and'
p2531
aS'and'
p2532
aS'and'
p2533
aS'and'
p2534
asS'can'
p2535
(lp2536
S'hit'
p2537
aS'be...'
p2538
aS'make'
p2539
aS'really'
p2540
aS'really'
p2541
aS'say,'
p2542
aS'watch'
p2543
aS'overstand'
p2544
ag162
ag162
aS'feel'
p2545
aS'never'
p2546
aS'sip'
p2547
asS'heart'
p2548
(lp2549
S'and'
p2550
aS'is'
p2551
aS'thump'
p2552
aS'beats'
p2553
asg2089
(lp2554
S'(crazy)'
p2555
asS'figure'
p2556
(lp2557
S'out'
p2558
aS'out'
p2559
asS'fuck'
p2560
(lp2561
S'em'
p2562
aS'that'
p2563
aS'<N>'
p2564
aS'about'
p2565
aS'it'
p2566
aS'you'
p2567
aS'you'
p2568
asg301
(lp2569
S'of'
p2570
asS'seen...'
p2571
(lp2572
g1
asg795
(lp2573
S'our'
p2574
asS'Who'
p2575
(lp2576
S'throws'
p2577
asS'Whether'
p2578
(lp2579
S'you'
p2580
asS'milds'
p2581
(lp2582
S'still'
p2583
asg1695
(lp2584
S'<N>'
p2585
asS'mad'
p2586
(lp2587
S'yo'
p2588
asS'Martin'
p2589
(lp2590
S'King,'
p2591
asS'congradulated'
p2592
(lp2593
S'<N>'
p2594
asg551
(lp2595
S'Chip'
p2596
aS"he's"
p2597
aS'<N>'
p2598
aS'<N>'
p2599
aS'<N>'
p2600
aS'on'
p2601
aS'on'
p2602
aS'on'
p2603
aS'pick'
p2604
asS'different)'
p2605
(lp2606
S'<N>'
p2607
asS'neck'
p2608
(lp2609
S'snap'
p2610
asS'whenever'
p2611
(lp2612
S'baby'
p2613
aS'baby'
p2614
asg1109
(lp2615
S'it'
p2616
ag315
asS'explicit'
p2617
(lp2618
S'<N>'
p2619
asg1566
(lp2620
S'chill,'
p2621
ag2500
aS"I'm"
p2622
aS"I'm"
p2623
aS"I'm"
p2624
ag162
ag1938
aS'nice'
p2625
aS'free'
p2626
aS'<N>'
p2627
aS'high)'
p2628
aS'high'
p2629
aS'high)'
p2630
aS'high'
p2631
aS'high)'
p2632
aS'high'
p2633
aS'high)'
p2634
aS'high'
p2635
aS'you'
p2636
aS'<N>'
p2637
aS'smooth'
p2638
aS'smooth)'
p2639
aS'<N>'
p2640
aS'to'
p2641
aS'<N>'
p2642
aS'real'
p2643
aS'alone'
p2644
aS"I'll"
p2645
aS'gentle'
p2646
asS'talk'
p2647
(lp2648
S'style.'
p2649
aS'(lay'
p2650
aS'(pillow'
p2651
aS'(pillow'
p2652
asg288
(lp2653
g261
aS'on'
p2654
aS'on'
p2655
asS'record.'
p2656
(lp2657
S'<N>'
p2658
aS'<N>'
p2659
aS'<N>'
p2660
aS'<N>'
p2661
aS'<N>'
p2662
asS'shake'
p2663
(lp2664
S'the'
p2665
asg2478
(lp2666
S'<N>'
p2667
asg2583
(lp2668
S"controllin'"
p2669
aS'enough'
p2670
aS'have'
p2671
ag1352
asS'thank'
p2672
(lp2673
S'god'
p2674
aS'god'
p2675
asg2597
(lp2676
g2022
aS'on'
p2677
asS'smoothie'
p2678
(lp2679
S'<N>'
p2680
asg2552
(lp2681
S'not'
p2682
asS'lonely'
p2683
(lp2684
S'stoner'
p2685
aS'loner'
p2686
aS'stoner'
p2687
aS'loner'
p2688
aS'stoner,'
p2689
aS'nights'
p2690
asS'Fall'
p2691
(lp2692
S'into'
p2693
asS'She'
p2694
(lp2695
S'fine'
p2696
asg457
(lp2697
S'way'
p2698
asg2041
(lp2699
S'me'
p2700
aS'that'
p2701
aS'live'
p2702
aS'<N>'
p2703
aS'<N>'
p2704
aS'one'
p2705
aS'from'
p2706
aS'hiding'
p2707
ag2586
asS'Closing'
p2708
(lp2709
S'your'
p2710
asS'now'
p2711
(lp2712
S'you'
p2713
aS'you'
p2714
aS'<N>'
p2715
aS'<N>'
p2716
ag2466
aS'<N>'
p2717
aS'everyone'
p2718
asS'[HOOK]'
p2719
(lp2720
S'<N>'
p2721
aS'<N>'
p2722
asS'accommodate'
p2723
(lp2724
S'the'
p2725
asS'than,'
p2726
(lp2727
g1
asg1815
(lp2728
S'or'
p2729
asS'intrigued'
p2730
(lp2731
g2472
asg2562
(lp2732
S'<N>'
p2733
aS'<N>'
p2734
aS'on'
p2735
asS'A'
p2736
(lp2737
S'silent'
p2738
asS'got)'
p2739
(lp2740
S'<N>'
p2741
asg1187
(lp2742
g162
asS'girl'
p2743
(lp2744
S'he'
p2745
ag162
ag162
aS'you'
p2746
aS'you'
p2747
aS'you'
p2748
aS'you'
p2749
asS'Save'
p2750
(lp2751
S'my'
p2752
asS'living'
p2753
(lp2754
S'out'
p2755
asS"Walkin'"
p2756
(lp2757
S'on'
p2758
asS'(And'
p2759
(lp2760
S"I'm"
p2761
aS"I'm"
p2762
aS"I'm"
p2763
aS"I'm"
p2764
asS'looking'
p2765
(lp2766
S'for'
p2767
aS'for'
p2768
asS'(?)'
p2769
(lp2770
S'<N>'
p2771
aS'<N>'
p2772
aS'you'
p2773
aS'to'
p2774
aS'<N>'
p2775
asS'after'
p2776
(lp2777
S'my'
p2778
asS'yea,'
p2779
(lp2780
S'yo,'
p2781
asS'Sometimes'
p2782
(lp2783
S'you'
p2784
aS'you'
p2785
aS"I'm"
p2786
asg1553
(lp2787
S'<N>'
p2788
asS'Stand'
p2789
(lp2790
S'up,'
p2791
asS'Mixed'
p2792
(lp2793
S'in'
p2794
asS'checks,'
p2795
(lp2796
S'for'
p2797
asS"livin'"
p2798
(lp2799
S'<N>'
p2800
asg577
(lp2801
S'<N>'
p2802
asS'honest'
p2803
(lp2804
S'as'
p2805
asS"lookin'"
p2806
(lp2807
S'for'
p2808
aS'for'
p2809
asS'turn'
p2810
(lp2811
S'the'
p2812
aS'them'
p2813
asS'place'
p2814
(lp2815
S'where'
p2816
asS'Kaboom'
p2817
(lp2818
g2035
asS'think'
p2819
(lp2820
g1258
aS'they'
p2821
aS"I'm"
p2822
aS"I'm"
p2823
aS"I'm"
p2824
aS"I'm"
p2825
ag162
asS'dooder,'
p2826
(lp2827
S'they'
p2828
asS'first'
p2829
(lp2830
S'but'
p2831
aS'you'
p2832
aS'step'
p2833
asS'Even'
p2834
(lp2835
S'in'
p2836
asS'There'
p2837
(lp2838
g440
aS'must'
p2839
aS'must'
p2840
aS'must'
p2841
asg953
(lp2842
S'<N>'
p2843
aS'<N>'
p2844
aS'<N>'
p2845
asS'cop,'
p2846
(lp2847
S'you'
p2848
asS'yourself'
p2849
(lp2850
S'go'
p2851
asS'Till'
p2852
(lp2853
S"I'm"
p2854
asS'fast'
p2855
(lp2856
S'(what,'
p2857
asg1541
(lp2858
S'<N>'
p2859
aS'<N>'
p2860
aS'<N>'
p2861
aS'<N>'
p2862
aS'<N>'
p2863
asS'Ever'
p2864
(lp2865
S'been'
p2866
asg772
(lp2867
S'like'
p2868
aS'short,'
p2869
aS'<N>'
p2870
aS'out'
p2871
asg2188
(lp2872
S'like'
p2873
aS'on,'
p2874
aS'<N>'
p2875
asS'little'
p2876
(lp2877
S'different'
p2878
ag235
asg2738
(lp2879
g1136
asg2195
(lp2880
S'<N>'
p2881
asS'right)'
p2882
(lp2883
S'<N>'
p2884
asS'Such'
p2885
(lp2886
S'bullshit'
p2887
asS'white'
p2888
(lp2889
g1931
asS'friend'
p2890
(lp2891
S'<N>'
p2892
asS'S-o-l-o'
p2893
(lp2894
g2147
asS'eyes'
p2895
(lp2896
S'<N>'
p2897
aS'the'
p2898
ag1957
ag388
asg2154
(lp2899
S'then'
p2900
asg1220
(lp2901
S'<N>'
p2902
aS'<N>'
p2903
asg2178
(lp2904
g1283
aS'high'
p2905
aS'Imeem,'
p2906
ag788
aS'double-O,'
p2907
ag776
aS'your'
p2908
ag2855
aS'she'
p2909
ag1288
ag1364
aS'my'
p2910
aS'<N>'
p2911
aS'<N>'
p2912
aS'man'
p2913
aS'man'
p2914
aS'man'
p2915
aS'make'
p2916
aS"I'm"
p2917
aS"I'm"
p2918
aS'Maui'
p2919
aS'Maui'
p2920
aS'Maui'
p2921
aS'Maui'
p2922
aS'Maui'
p2923
aS'Maui'
p2924
aS'Maui'
p2925
aS'we'
p2926
ag315
aS'who'
p2927
aS'make'
p2928
aS'could'
p2929
ag162
ag162
ag162
ag162
asS'brains'
p2930
(lp2931
S'<N>'
p2932
asS'now?,'
p2933
(lp2934
S'<N>'
p2935
asS'on?'
p2936
(lp2937
S'<N>'
p2938
asS'closer,'
p2939
(lp2940
S'bring'
p2941
asg1904
(lp2942
g315
ag315
asS'10'
p2943
(lp2944
g1383
asS'gotta'
p2945
(lp2946
S'explain'
p2947
aS'shut'
p2948
asS"poutin',"
p2949
(lp2950
S'<N>'
p2951
asS'future'
p2952
(lp2953
S'while'
p2954
aS'too'
p2955
asS'were'
p2956
(lp2957
S'alone,'
p2958
aS'acting'
p2959
aS'different'
p2960
ag2605
asS'earth,'
p2961
(lp2962
S'mixed'
p2963
asS'and'
p2964
(lp2965
g2819
aS'what'
p2966
aS'rock.'
p2967
aS'looks'
p2968
aS'smiled'
p2969
aS'fucking'
p2970
ag2197
aS'the'
p2971
ag2581
aS'found'
p2972
aS'all,'
p2973
ag2943
ag2560
aS'<N>'
p2974
ag1916
ag2286
aS'night'
p2975
aS'night'
p2976
aS'night'
p2977
ag973
ag791
ag2266
aS"I'll"
p2978
aS'control'
p2979
aS'out,'
p2980
ag2061
ag2765
aS'out,'
p2981
aS'down'
p2982
aS'looking'
p2983
aS'forgotten'
p2984
aS'any'
p2985
aS'out,'
p2986
aS'out,'
p2987
aS'out'
p2988
aS'its'
p2989
aS'then'
p2990
aS'feelings'
p2991
aS'speakin'
p2992
ag315
aS'Pat'
p2993
aS'shit'
p2994
aS'talk'
p2995
aS'talk)'
p2996
aS'loved'
p2997
aS'my'
p2998
aS'got'
p2999
aS"don't"
p3000
aS'popping'
p3001
aS'imma'
p3002
aS'we'
p3003
aS'glide'
p3004
aS'you'
p3005
aS'you'
p3006
aS'you'
p3007
aS'you'
p3008
aS'you'
p3009
aS'you'
p3010
aS'you'
p3011
aS'you'
p3012
asS"He's"
p3013
(lp3014
S'up'
p3015
aS'all'
p3016
aS'all'
p3017
aS'on'
p3018
asg914
(lp3019
g2739
asg1739
(lp3020
S'<N>'
p3021
asS'sad'
p3022
(lp3023
S"(don't"
p3024
asg1125
(lp3025
S"I'm"
p3026
aS'<N>'
p3027
aS'they'
p3028
aS'then'
p3029
aS"I'm"
p3030
asS'jet-lagged'
p3031
(lp3032
S'and'
p3033
asS'saw'
p3034
(lp3035
S'you'
p3036
asg2985
(lp3037
S'kind'
p3038
asS'Do'
p3039
(lp3040
S'you'
p3041
aS'you'
p3042
asS'aside'
p3043
(lp3044
S'<N>'
p3045
asS'take'
p3046
(lp3047
g315
ag315
aS'flight'
p3048
ag315
aS'<N>'
p3049
aS'<N>'
p3050
aS'<N>'
p3051
aS'<N>'
p3052
aS'<N>'
p3053
aS'<N>'
p3054
aS'<N>'
p3055
asS"leanin'."
p3056
(lp3057
S'<N>'
p3058
aS'<N>'
p3059
asS'destroy'
p3060
(lp3061
S'my'
p3062
aS'it'
p3063
asg572
(lp3064
S'and'
p3065
asg1732
(lp3066
S'what'
p3067
asS'begin'
p3068
(lp3069
S'with'
p3070
asS'pain'
p3071
(lp3072
S'is'
p3073
asS'trace'
p3074
(lp3075
S'that'
p3076
asS'Cleveland,'
p3077
(lp3078
g147
asS'taste?'
p3079
(lp3080
S'absolutely!'
p3081
asg531
(lp3082
g1650
asg345
(lp3083
g1967
asS'Fuck'
p3084
(lp3085
S"'08,"
p3086
asS'science,'
p3087
(lp3088
g1
asg2958
(lp3089
S'no'
p3090
aS'some'
p3091
asg2689
(lp3092
S'Mr.'
p3093
asS'show'
p3094
(lp3095
S'you'
p3096
aS'you'
p3097
aS'the'
p3098
aS'me'
p3099
aS'me)'
p3100
aS'me'
p3101
aS'(after'
p3102
asg2239
(lp3103
S'<N>'
p3104
asg844
(lp3105
S'beam'
p3106
asS"freakin'"
p3107
(lp3108
S'black'
p3109
asS'aint'
p3110
(lp3111
g1146
aS'much'
p3112
aS'human,'
p3113
aS'human,'
p3114
aS'high'
p3115
aS'high'
p3116
asS'We'
p3117
(lp3118
S"wheelin',"
p3119
aS'all'
p3120
asS'slow'
p3121
(lp3122
g2647
asg1716
(lp3123
S'<N>'
p3124
asg1810
(lp3125
S'nigga'
p3126
asS'going'
p3127
(lp3128
S'nowhere'
p3129
aS'nowhere'
p3130
aS'nowhere'
p3131
asg3109
(lp3132
S'and'
p3133
asg662
(lp3134
S'hoo'
p3135
aS'hoo'
p3136
aS'hoo'
p3137
asS'get'
p3138
(lp3139
S'wrapped'
p3140
ag1571
aS'wild'
p3141
aS'my'
p3142
aS'my'
p3143
ag2140
aS'(Wild'
p3144
aS'wit'
p3145
ag315
aS'it'
p3146
ag2592
aS'hurt'
p3147
aS'that,'
p3148
aS'that,'
p3149
ag315
ag315
aS'<N>'
p3150
aS'Lifted'
p3151
aS'to'
p3152
aS'to'
p3153
aS'it'
p3154
aS'it'
p3155
asS'alot."'
p3156
(lp3157
S'<N>'
p3158
asS'mission'
p3159
(lp3160
S'to'
p3161
asg2515
(lp3162
S'be'
p3163
asS"'til"
p3164
(lp3165
S"I'm"
p3166
asS'flicks'
p3167
(lp3168
S'<N>'
p3169
asg763
(lp3170
S'on'
p3171
asS'jokes'
p3172
(lp3173
g3043
asS'worries'
p3174
(lp3175
g162
asg2816
(lp3176
g1945
asg559
(lp3177
S'my'
p3178
asS'crazy,'
p3179
(lp3180
S'crazy,'
p3181
aS'crazy...'
p3182
aS'crazy,'
p3183
aS'crazy...'
p3184
asS"y'all"
p3185
(lp3186
S'feel?,'
p3187
aS'feel?,'
p3188
aS'<N>'
p3189
aS'is'
p3190
aS"rockin'"
p3191
aS'<N>'
p3192
aS'is'
p3193
aS"rockin'"
p3194
aS"rockin'"
p3195
aS"rockin'"
p3196
aS"rockin'"
p3197
ag1104
asg768
(lp3198
S'<N>'
p3199
asg497
(lp3200
g659
aS'hoo'
p3201
aS'hoo'
p3202
aS'hoo'
p3203
asS"killin'"
p3204
(lp3205
S'<N>'
p3206
asg2639
(lp3207
S'<N>'
p3208
asS'hoes'
p3209
(lp3210
S'<N>'
p3211
aS'<N>'
p3212
ag1418
aS'<N>'
p3213
aS'was'
p3214
ag162
asg2906
(lp3215
S'<N>'
p3216
asS'That'
p3217
(lp3218
S'you'
p3219
aS'was'
p3220
asg1908
(lp3221
S'to'
p3222
aS'to'
p3223
aS'to'
p3224
aS'to'
p3225
aS'to'
p3226
aS'to'
p3227
asS'Forgive'
p3228
(lp3229
S'me'
p3230
asg2670
(lp3231
S'time'
p3232
aS'dough,'
p3233
asS'between'
p3234
(lp3235
S'your'
p3236
asg1948
(lp3237
g2480
aS'<N>'
p3238
aS'slowly'
p3239
aS'here'
p3240
asg854
(lp3241
S'that'
p3242
asS'man.'
p3243
(lp3244
S'<N>'
p3245
asS'come'
p3246
(lp3247
S'from'
p3248
aS'up'
p3249
aS'in'
p3250
aS'in'
p3251
aS'in'
p3252
aS'in'
p3253
aS'in'
p3254
aS'close'
p3255
aS'one'
p3256
aS'all'
p3257
aS'up'
p3258
asS"'No"
p3259
(lp3260
g1264
asS'Give'
p3261
(lp3262
S'fake'
p3263
asS'way.'
p3264
(lp3265
S'<N>'
p3266
asS"'Cause"
p3267
(lp3268
g162
asS'way,'
p3269
(lp3270
S'<N>'
p3271
asg310
(lp3272
g2098
aS'believe'
p3273
aS'get'
p3274
aS'cash'
p3275
aS'seem'
p3276
aS'go'
p3277
aS'believe'
p3278
aS'give'
p3279
aS'show'
p3280
aS'give'
p3281
aS'hear'
p3282
aS'comprenhend'
p3283
aS'see'
p3284
aS'knock'
p3285
aS'have'
p3286
asS'K-i-d'
p3287
(lp3288
g2893
asS'Guess'
p3289
(lp3290
S'if'
p3291
asS'nowhere)'
p3292
(lp3293
S'<N>'
p3294
aS'<N>'
p3295
aS'<N>'
p3296
asg1988
(lp3297
S'with'
p3298
asg1841
(lp3299
S"I'm"
p3300
asg778
(lp3301
g1346
asS'want,'
p3302
(lp3303
g1
asg794
(lp3304
g1
asg2967
(lp3305
S'Oh,'
p3306
asS'But'
p3307
(lp3308
S'they'
p3309
ag1615
aS'make'
p3310
aS'soon'
p3311
ag162
aS"I'm"
p3312
ag162
ag162
ag162
ag162
aS'my'
p3313
aS'then'
p3314
aS"that's"
p3315
aS'my'
p3316
aS'then'
p3317
aS'they'
p3318
aS'you'
p3319
aS'she'
p3320
aS'please'
p3321
aS'please'
p3322
aS'they'
p3323
aS'baby'
p3324
asS'Hurry'
p3325
(lp3326
S'up,'
p3327
asg1578
(lp3328
S'and'
p3329
asS'wants'
p3330
(lp3331
S"don't"
p3332
aS'to'
p3333
asS'Whenever'
p3334
(lp3335
S'baby'
p3336
ag1308
aS'however'
p3337
aS'however'
p3338
aS'however'
p3339
aS'however'
p3340
aS'however'
p3341
aS'however'
p3342
aS'however'
p3343
asS'(heaven'
p3344
(lp3345
S'at'
p3346
aS'at'
p3347
aS'at'
p3348
aS'at'
p3349
aS'at'
p3350
aS'at'
p3351
asS'wake'
p3352
(lp3353
g162
asg899
(lp3354
S'in'
p3355
ag315
asg363
(lp3356
S'are'
p3357
aS'songs'
p3358
aS'songs'
p3359
aS'songs'
p3360
asg3275
(lp3361
S'in,'
p3362
asS'Open'
p3363
(lp3364
S'up'
p3365
asS'Slow'
p3366
(lp3367
S'moe'
p3368
aS'down'
p3369
asS'Better'
p3370
(lp3371
g1873
asS"fiendin'"
p3372
(lp3373
S'now'
p3374
asS'"How'
p3375
(lp3376
S'you'
p3377
asg1973
(lp3378
S'<N>'
p3379
asS'worry'
p3380
(lp3381
S"'cuz"
p3382
asS'different'
p3383
(lp3384
S'time,'
p3385
aS'in'
p3386
aS'<N>'
p3387
ag2235
asS'sippin'
p3388
(lp3389
S'when'
p3390
asg481
(lp3391
g162
ag162
aS'that'
p3392
aS'that'
p3393
asS'check'
p3394
(lp3395
S'though'
p3396
asS'sign,'
p3397
(lp3398
S'not'
p3399
asg954
(lp3400
S'<N>'
p3401
aS'<N>'
p3402
aS'<N>'
p3403
asg553
(lp3404
S'<N>'
p3405
asS'finish'
p3406
(lp3407
S'last,'
p3408
asg162
(lp3409
S'could'
p3410
ag3246
aS'keep'
p3411
ag1318
aS'wanna'
p3412
aS'keep'
p3413
aS'be.'
p3414
aS'keep'
p3415
ag2396
aS'chop'
p3416
aS'play'
p3417
aS'can'
p3418
aS'keep'
p3419
aS'say,'
p3420
ag3046
aS'mean,'
p3421
aS"can't"
p3422
ag1878
aS'got'
p3423
aS'see'
p3424
aS'get'
p3425
aS'can'
p3426
aS'get'
p3427
aS"don't"
p3428
aS"can't"
p3429
aS'cut'
p3430
aS'rep'
p3431
aS'got'
p3432
aS'live'
p3433
aS'mumble'
p3434
aS'am'
p3435
aS'was'
p3436
aS'would'
p3437
aS'am'
p3438
ag2159
aS'keep'
p3439
aS'look'
p3440
aS"don't"
p3441
aS'need'
p3442
aS'try'
p3443
aS'think'
p3444
aS'think'
p3445
aS'be'
p3446
aS'be'
p3447
aS'always'
p3448
aS'reach'
p3449
ag1208
aS'was'
p3450
aS'still'
p3451
aS'stand'
p3452
aS'provide'
p3453
ag217
ag900
aS"ain't"
p3454
aS'pray'
p3455
aS'erase'
p3456
ag2211
aS"can't"
p3457
aS'can'
p3458
aS'feel'
p3459
aS'feel'
p3460
aS"don't"
p3461
aS'met'
p3462
aS'ask'
p3463
aS'come'
p3464
aS'need'
p3465
aS'must'
p3466
aS'am'
p3467
aS'am'
p3468
aS'made'
p3469
aS'am'
p3470
aS'ask'
p3471
aS'come'
p3472
aS'need'
p3473
aS'come'
p3474
aS'need'
p3475
aS'promise'
p3476
aS"won't"
p3477
aS'will'
p3478
ag1
aS'am'
p3479
aS'come'
p3480
aS'need'
p3481
aS'come'
p3482
aS'need'
p3483
aS'like'
p3484
aS'need'
p3485
aS'see'
p3486
aS'like'
p3487
aS'sing'
p3488
aS'never'
p3489
aS'never'
p3490
ag864
aS'did'
p3491
aS'guess'
p3492
aS'was'
p3493
aS'was'
p3494
aS'was'
p3495
aS"wasn't"
p3496
aS'aint'
p3497
aS'came'
p3498
aS'aint'
p3499
aS'came'
p3500
aS'be'
p3501
aS'do'
p3502
aS'be'
p3503
aS'do'
p3504
ag2046
aS'be'
p3505
aS'be'
p3506
aS'got'
p3507
aS"can't"
p3508
aS'say,'
p3509
aS'know,'
p3510
aS'know,'
p3511
aS'know'
p3512
aS'really'
p3513
aS'need'
p3514
aS'smoke'
p3515
aS'need'
p3516
aS'smoke'
p3517
aS'know,'
p3518
aS'know,'
p3519
aS'know'
p3520
aS'need'
p3521
aS'smoke'
p3522
aS'tell'
p3523
aS"ain't"
p3524
aS'know'
p3525
aS"ain't"
p3526
aS"ain't"
p3527
aS'know,'
p3528
aS'<N>'
p3529
aS'wanna'
p3530
ag3034
aS'see'
p3531
aS'hope'
p3532
aS'know,'
p3533
aS'<N>'
p3534
aS'wanna'
p3535
aS"don't"
p3536
aS'open'
p3537
aS'turn'
p3538
aS"don't"
p3539
aS'was'
p3540
aS'gotta'
p3541
aS'just'
p3542
aS'smile'
p3543
ag857
aS'rearrange'
p3544
aS'drop,'
p3545
aS'lean'
p3546
aS'stay'
p3547
aS'lost'
p3548
aS'pick'
p3549
ag3302
aS"don't"
p3550
aS'slip'
p3551
ag2333
aS'dream'
p3552
ag1343
aS'die'
p3553
aS'wake,'
p3554
aS'pray'
p3555
aS'have'
p3556
aS'die'
p3557
ag3352
aS'pray'
p3558
aS'can'
p3559
aS'got'
p3560
aS'am'
p3561
aS"don't"
p3562
aS'know'
p3563
aS'am'
p3564
aS'am'
p3565
aS'ever'
p3566
ag724
ag978
aS'am'
p3567
aS'die'
p3568
aS'wake,'
p3569
aS'pray'
p3570
aS'have'
p3571
aS'die'
p3572
aS'wake,'
p3573
aS'pray'
p3574
aS'die'
p3575
aS'wake,'
p3576
aS'pray'
p3577
aS'have'
p3578
aS'die'
p3579
aS'wake,'
p3580
aS'pray'
p3581
aS'roll'
p3582
aS'know'
p3583
aS'have'
p3584
asg816
(lp3585
S'<N>'
p3586
asg569
(lp3587
S'to'
p3588
asS'Dodging'
p3589
(lp3590
S'and'
p3591
asS'Is'
p3592
(lp3593
S'that'
p3594
asS'It'
p3595
(lp3596
S'seems'
p3597
asS'shift,'
p3598
(lp3599
g3107
asS'Nellie,'
p3600
(lp3601
g162
asg1744
(lp3602
S"tryin'"
p3603
aS'you'
p3604
asS'In'
p3605
(lp3606
S'the'
p3607
aS'the'
p3608
aS'my'
p3609
asg1226
(lp3610
S'girls'
p3611
asS'If'
p3612
(lp3613
S'you'
p3614
aS'anything'
p3615
aS'you'
p3616
aS'you'
p3617
ag162
ag162
asS"You're"
p3618
(lp3619
S'cool,'
p3620
asS'being'
p3621
(lp3622
S'nice'
p3623
ag1231
aS'nervous'
p3624
aS'free'
p3625
asS'money'
p3626
(lp3627
S'and'
p3628
aS'is'
p3629
aS'(all'
p3630
asg1856
(lp3631
g315
asg402
(lp3632
S'<N>'
p3633
asS'Man,'
p3634
(lp3635
g162
ag162
asg2649
(lp3636
S'<N>'
p3637
asg951
(lp3638
S'<N>'
p3639
asS'thinking'
p3640
(lp3641
S'God'
p3642
asS'seems'
p3643
(lp3644
S'to'
p3645
aS'to'
p3646
aS'to'
p3647
aS'to'
p3648
aS'the'
p3649
aS'alive'
p3650
asS'muthafucka,'
p3651
(lp3652
S'you'
p3653
asS'Apes...'
p3654
(lp3655
g197
asg1759
(lp3656
S'<N>'
p3657
aS'<N>'
p3658
aS'<N>'
p3659
aS'<N>'
p3660
asg2090
(lp3661
S'<N>'
p3662
asS'aspects'
p3663
(lp3664
S'<N>'
p3665
asS'around'
p3666
(lp3667
S'and'
p3668
aS'and'
p3669
aS'<N>'
p3670
asS'read'
p3671
(lp3672
S'my'
p3673
aS'my'
p3674
asS'Girls'
p3675
(lp3676
S'that'
p3677
asS'gonna'
p3678
(lp3679
g1884
aS'save'
p3680
asg1918
(lp3681
g2120
aS'what)'
p3682
aS'what)'
p3683
aS'what)'
p3684
aS'what)'
p3685
aS'what)'
p3686
aS'what)'
p3687
aS'what)'
p3688
aS'what)'
p3689
aS'what)'
p3690
aS'what)'
p3691
aS'what)'
p3692
aS'what)'
p3693
aS'what)'
p3694
aS'what)'
p3695
aS'what)'
p3696
aS'what)'
p3697
aS'what)'
p3698
asg585
(lp3699
S'for'
p3700
asg1740
(lp3701
S'want'
p3702
aS'to'
p3703
aS"can't"
p3704
aS"can't"
p3705
aS"can't"
p3706
aS"can't"
p3707
ag340
asg3368
(lp3708
S'(what,'
p3709
asg1870
(lp3710
g2936
asS'Show'
p3711
(lp3712
g941
asg2509
(lp3713
S"'09,"
p3714
aS'often'
p3715
asS'muthafuckas'
p3716
(lp3717
S"hatin',"
p3718
asS"(weren't"
p3719
(lp3720
S'impressed)'
p3721
asg541
(lp3722
S'city.'
p3723
asS'mock'
p3724
(lp3725
S'your'
p3726
asS'Man'
p3727
(lp3728
S'<N>'
p3729
aS'<N>'
p3730
asg454
(lp3731
S'<N>'
p3732
asS'West'
p3733
(lp3734
g1255
asS'Zully'
p3735
(lp3736
S'what'
p3737
asg3456
(lp3738
S"'em"
p3739
asg1172
(lp3740
S'<N>'
p3741
aS'<N>'
p3742
asS"Playin'"
p3743
(lp3744
g214
asS'peace,'
p3745
(lp3746
S'life'
p3747
asg1741
(lp3748
S"I'm"
p3749
aS'<N>'
p3750
aS'<N>'
p3751
aS'<N>'
p3752
aS'<N>'
p3753
asS'Wowie,'
p3754
(lp3755
S'that'
p3756
aS'that'
p3757
asS'hipster'
p3758
(lp3759
S'as'
p3760
asg589
(lp3761
S'deep'
p3762
asg815
(lp3763
S'<N>'
p3764
asg2544
(lp3765
S'how'
p3766
asS'credits'
p3767
(lp3768
S'<N>'
p3769
asS'throw'
p3770
(lp3771
S'em'
p3772
asS'on'
p3773
(lp3774
S'the'
p3775
aS'our'
p3776
aS'the'
p3777
aS'no'
p3778
aS'the'
p3779
aS'the'
p3780
ag1300
aS'the'
p3781
aS'the'
p3782
ag2961
aS'my'
p3783
ag315
aS'the'
p3784
aS'<N>'
p3785
aS'acting'
p3786
ag2218
aS'the'
p3787
aS'the'
p3788
aS'the'
p3789
aS'the'
p3790
ag315
aS'the'
p3791
aS'me'
p3792
aS'ya'
p3793
ag526
aS'the'
p3794
aS'my'
p3795
aS'bottoms'
p3796
aS'sleep'
p3797
aS'the'
p3798
aS'the'
p3799
aS'purpose'
p3800
aS'you'
p3801
aS'the'
p3802
asS'Lifted'
p3803
(lp3804
S'like'
p3805
aS'<N>'
p3806
aS'<N>'
p3807
asS'ok'
p3808
(lp3809
S'to'
p3810
ag162
asg2107
(lp3811
S'so'
p3812
asS'of'
p3813
(lp3814
g1027
ag315
aS'the'
p3815
ag2589
aS'Henn-essy'
p3816
aS'dopeness'
p3817
aS'weather'
p3818
aS'the'
p3819
aS"y'all"
p3820
aS'<N>'
p3821
aS'all'
p3822
aS'light'
p3823
aS'the'
p3824
aS'the'
p3825
ag3621
aS'the'
p3826
aS'being'
p3827
aS'some'
p3828
asg3416
(lp3829
S'it'
p3830
asg3452
(lp3831
S'on'
p3832
asS'Hoes'
p3833
(lp3834
S'be'
p3835
asg2963
(lp3836
S'with'
p3837
aS'with'
p3838
aS'with'
p3839
asg2980
(lp3840
S'so'
p3841
aS'so'
p3842
aS'Hey'
p3843
aS'out'
p3844
asS'or'
p3845
(lp3846
S'the'
p3847
aS'not'
p3848
aS'less'
p3849
aS'the'
p3850
aS'less'
p3851
asS'road'
p3852
(lp3853
S'ass'
p3854
asS'girl...'
p3855
(lp3856
S'<N>'
p3857
asS'No'
p3858
(lp3859
S'one'
p3860
ag1040
aS'matter'
p3861
aS'matter'
p3862
ag3174
aS'bitch'
p3863
asg3603
(lp3864
S'to'
p3865
aS'to'
p3866
aS'to'
p3867
asS'your'
p3868
(lp3869
S'help...'
p3870
aS'words,'
p3871
ag2608
aS'hair'
p3872
aS'arms'
p3873
ag2548
aS'ass'
p3874
ag2952
aS'eyes'
p3875
aS'soul?'
p3876
aS'focus'
p3877
aS'high'
p3878
aS'feet'
p3879
aS'body'
p3880
aS'side'
p3881
aS'side)'
p3882
ag2269
aS'body'
p3883
aS'eyes'
p3884
aS'rhythm'
p3885
aS'thighs'
p3886
asg906
(lp3887
S'own'
p3888
aS'mami'
p3889
aS'assets'
p3890
aS'up'
p3891
aS'flat'
p3892
asS'there'
p3893
(lp3894
S'could'
p3895
asS'hey'
p3896
(lp3897
S'<N>'
p3898
aS'hey'
p3899
aS'<N>'
p3900
asS'start'
p3901
(lp3902
S"slumpin',"
p3903
aS'<N>'
p3904
asg1195
(lp3905
S'(what,'
p3906
asg405
(lp3907
g2949
asS'you,'
p3908
(lp3909
S'ever'
p3910
ag162
ag162
ag162
asS'Uh-uh'
p3911
(lp3912
S'<N>'
p3913
asS'amongst'
p3914
(lp3915
S'the'
p3916
asS'Walker'
p3917
(lp3918
S'what'
p3919
asg733
(lp3920
S'to'
p3921
asg381
(lp3922
S'beats.'
p3923
aS'the'
p3924
aS'ploys'
p3925
aS'inner'
p3926
aS'my'
p3927
aS'all'
p3928
aS'some'
p3929
aS'no'
p3930
aS'closed'
p3931
aS'me'
p3932
aS'me'
p3933
aS'garbage'
p3934
aS'me'
p3935
aS'me'
p3936
aS'me'
p3937
aS'me'
p3938
ag361
aS'<N>'
p3939
aS'my'
p3940
aS'her'
p3941
ag315
aS'the'
p3942
aS'success'
p3943
aS'me,'
p3944
aS'the'
p3945
aS'the'
p3946
aS'the'
p3947
aS'the'
p3948
aS'you'
p3949
asS'wild,'
p3950
(lp3951
S'wild'
p3952
asS'pull'
p3953
(lp3954
S'up'
p3955
aS'up'
p3956
ag1474
asg3496
(lp3957
g315
aS'at'
p3958
asS'Close'
p3959
(lp3960
S'my'
p3961
asg3119
(lp3962
S'pick'
p3963
asS'gone'
p3964
(lp3965
S'<N>'
p3966
aS'make'
p3967
asg3435
(lp3968
g324
aS'the'
p3969
aS'here'
p3970
aS'here'
p3971
aS'it'
p3972
aS'you'
p3973
aS'feeling'
p3974
aS'not'
p3975
aS'open'
p3976
aS'not'
p3977
asg1508
(lp3978
S'(what,'
p3979
ag162
asS'How'
p3980
(lp3981
S'you'
p3982
aS'you'
p3983
aS'he'
p3984
ag3185
aS"y'all"
p3985
aS'to'
p3986
aS'ya'
p3987
aS'will'
p3988
aS'will'
p3989
asg2805
(lp3990
S'can'
p3991
ag162
aS'far'
p3992
aS'overall'
p3993
ag315
aS'long'
p3994
aS"you're"
p3995
aS'she'
p3996
asg3871
(lp3997
g1
asS'at'
p3998
(lp3999
S'me,'
p4000
ag250
aS'her'
p4001
aS'my'
p4002
aS'this'
p4003
aS'night'
p4004
aS'night'
p4005
aS'night)'
p4006
aS'night'
p4007
aS'night'
p4008
aS'night)'
p4009
aS'night'
p4010
aS'the'
p4011
aS'all'
p4012
aS'what'
p4013
aS'nite'
p4014
aS'nite)'
p4015
aS'nite'
p4016
aS'nite'
p4017
aS'night'
p4018
aS'nite'
p4019
aS'nite'
p4020
aS'night)'
p4021
aS'nite'
p4022
aS'nite)'
p4023
aS'nite'
p4024
aS'nite)'
p4025
aS'nite'
p4026
aS'nite)'
p4027
aS'nite'
p4028
aS'nite'
p4029
aS'nite'
p4030
aS'nite)'
p4031
aS'nite'
p4032
aS'nite'
p4033
aS'nite'
p4034
aS'all...around'
p4035
aS'home'
p4036
aS'the'
p4037
aS'peace'
p4038
ag2005
aS'me'
p4039
asS'walks'
p4040
(lp4041
S'with'
p4042
asg596
(lp4043
S'<N>'
p4044
aS'<N>'
p4045
asg1994
(lp4046
S'<N>'
p4047
asS'again'
p4048
(lp4049
S'<N>'
p4050
asS'Yea,'
p4051
(lp4052
g2779
asS'back,'
p4053
(lp4054
S'<N>'
p4055
aS'<N>'
p4056
asS'Hoes,'
p4057
(lp4058
S'they'
p4059
asg1522
(lp4060
S'<N>'
p4061
aS'get'
p4062
aS'get'
p4063
asg2386
(lp4064
S'ready'
p4065
asS'call,'
p4066
(lp4067
S'come'
p4068
asg3982
(lp4069
g2535
aS'ask'
p4070
ag633
aS'please'
p4071
aS'have'
p4072
ag2525
aS"doin'"
p4073
aS'like'
p4074
aS"ain't"
p4075
aS'(?)'
p4076
ag1167
ag2215
ag2956
ag2078
aS'come'
p4077
aS'now'
p4078
aS'are'
p4079
aS"won't"
p4080
aS'feel'
p4081
aS"can't"
p4082
aS'need,'
p4083
ag3372
aS'figure'
p4084
aS'what'
p4085
aS'could'
p4086
aS'will'
p4087
aS'want'
p4088
ag2042
aS'want'
p4089
aS'commit'
p4090
aS'could'
p4091
aS'all'
p4092
aS'how'
p4093
aS'<N>'
p4094
aS'are'
p4095
aS'got'
p4096
aS'show'
p4097
aS'are'
p4098
ag2374
aS'<N>'
p4099
aS'ever'
p4100
aS'ever'
p4101
aS'ever'
p4102
aS'might'
p4103
aS'give'
p4104
aS'be'
p4105
ag810
aS'ever'
p4106
aS'feel'
p4107
aS'drink'
p4108
aS'<N>'
p4109
aS'ever'
p4110
aS'ever'
p4111
aS'hey'
p4112
aS'ever'
p4113
aS"gon'"
p4114
ag2846
aS'smoke'
p4115
aS'feel'
p4116
ag163
aS'in'
p4117
aS'smoke'
p4118
aS'could'
p4119
aS'learn'
p4120
aS"somethin'?"
p4121
aS'feel'
p4122
aS'right'
p4123
ag2882
aS'so'
p4124
ag2776
aS'were'
p4125
ag2208
aS'smiling'
p4126
aS'smiling)'
p4127
aS'feeling'
p4128
aS'so'
p4129
aS'like'
p4130
aS'<N>'
p4131
aS'too'
p4132
aS'meet'
p4133
aS'the'
p4134
aS'<N>'
p4135
aS'think'
p4136
aS'<N>'
p4137
aS'remember'
p4138
aS'ever'
p4139
aS'can'
p4140
aS'<N>'
p4141
ag229
aS'recognize'
p4142
aS'<N>'
p4143
aS'<N>'
p4144
ag3893
aS'<N>'
p4145
aS'listening'
p4146
aS'open'
p4147
aS'want'
p4148
aS'got'
p4149
aS'want'
p4150
aS'babe'
p4151
aS'<N>'
p4152
aS'want'
p4153
aS'got'
p4154
aS'want'
p4155
aS'babe'
p4156
aS'<N>'
p4157
aS'want'
p4158
aS'got'
p4159
aS'want'
p4160
aS'babe'
p4161
aS'<N>'
p4162
aS'want'
p4163
aS'got'
p4164
aS'want'
p4165
aS'babe'
p4166
ag197
asS"startin'"
p4167
(lp4168
S'<N>'
p4169
asS"gon'"
p4170
(lp4171
S'love'
p4172
aS'love'
p4173
ag1323
aS"fuckin'"
p4174
aS"fuckin'"
p4175
asS'symbol'
p4176
(lp4177
S'of'
p4178
asg2408
(lp4179
S'and'
p4180
asS'important'
p4181
(lp4182
S'so'
p4183
asg539
(lp4184
S'<N>'
p4185
asS'accent.'
p4186
(lp4187
S'<N>'
p4188
asS'included'
p4189
(lp4190
S'<N>'
p4191
aS'<N>'
p4192
asg2781
(lp4193
S'yo'
p4194
asg3890
(lp4195
S'<N>'
p4196
asg2048
(lp4197
S'her'
p4198
asS'yuppers'
p4199
(lp4200
S'smile'
p4201
asS'Licensed'
p4202
(lp4203
S'to'
p4204
asg2119
(lp4205
S'to'
p4206
aS"I'm"
p4207
aS"I'm"
p4208
asS'sushi,'
p4209
(lp4210
S'mami'
p4211
asg2450
(lp4212
S'within'
p4213
aS'day'
p4214
aS'the'
p4215
aS'my'
p4216
aS'day'
p4217
aS'the'
p4218
ag2392
aS'alone,'
p4219
aS'the'
p4220
aS"y'all"
p4221
aS'now'
p4222
aS"y'all"
p4223
ag3179
aS'<N>'
p4224
ag3663
ag223
aS'the'
p4225
aS'through'
p4226
aS'the'
p4227
aS'that?'
p4228
aS'my'
p4229
aS'selective'
p4230
aS'make'
p4231
aS'the'
p4232
ag3172
asg1725
(lp4233
S'keep'
p4234
asg561
(lp4235
S'mixed'
p4236
asS'Take'
p4237
(lp4238
g834
ag315
aS'my'
p4239
asg3630
(lp4240
S'my'
p4241
asS'imma'
p4242
(lp4243
S'do'
p4244
aS'have'
p4245
asS'to'
p4246
(lp4247
g1176
aS'find'
p4248
ag1633
aS'be'
p4249
aS'make'
p4250
aS'lean'
p4251
aS'reach'
p4252
aS'make'
p4253
aS'make'
p4254
aS'make'
p4255
aS'make'
p4256
ag655
ag232
aS'the'
p4257
aS'drank'
p4258
aS'the'
p4259
aS'Cali,'
p4260
aS'hit'
p4261
aS'cliche,'
p4262
ag2723
ag3060
ag2342
aS'run'
p4263
ag929
aS'free'
p4264
aS'free'
p4265
aS'free'
p4266
ag2663
ag2275
aS'find'
p4267
aS'be'
p4268
aS'be'
p4269
aS'Cape,'
p4270
ag2496
aS'drown'
p4271
aS'stop'
p4272
aS'God'
p4273
aS'be'
p4274
ag3671
aS'be'
p4275
aS'read'
p4276
aS'Cleveland'
p4277
aS'please'
p4278
ag3074
aS'show'
p4279
aS'be'
p4280
aS'teach'
p4281
aS'please'
p4282
ag1330
aS'Cloverfield'
p4283
aS'do'
p4284
aS'heaven'
p4285
aS'heaven'
p4286
aS'heaven'
p4287
aS'dream'
p4288
aS'heaven'
p4289
aS'heaven'
p4290
aS'heaven'
p4291
aS'heaven'
p4292
ag2387
aS'girls'
p4293
aS'say'
p4294
ag3068
aS'make'
p4295
aS'love'
p4296
aS'get'
p4297
aS'call'
p4298
ag2364
aS'get'
p4299
aS'Honolulu'
p4300
aS'get'
p4301
aS'take'
p4302
aS'get'
p4303
aS'the'
p4304
ag960
aS'go,'
p4305
aS'go,'
p4306
aS'go,'
p4307
aS'go,'
p4308
aS'do'
p4309
ag1082
aS'know'
p4310
aS'know'
p4311
aS'mine'
p4312
aS'find'
p4313
aS'my'
p4314
aS'see'
p4315
aS'stick'
p4316
aS'the'
p4317
aS'shine'
p4318
aS'the'
p4319
aS'my'
p4320
aS'come'
p4321
aS'the'
p4322
ag3770
aS'the'
p4323
aS'take'
p4324
aS'take'
p4325
ag3380
aS'take'
p4326
aS'take'
p4327
aS'take'
p4328
ag3724
aS'be'
p4329
asg1941
(lp4330
S'you'
p4331
asg4201
(lp4332
S'all'
p4333
aS'then'
p4334
aS'at'
p4335
asg2051
(lp4336
S'have'
p4337
asg2996
(lp4338
S'<N>'
p4339
aS'<N>'
p4340
aS'<N>'
p4341
asS'woman'
p4342
(lp4343
S'by'
p4344
aS'by'
p4345
aS'just'
p4346
asg4014
(lp4347
g3344
aS'<N>'
p4348
aS'<N>'
p4349
aS'<N>'
p4350
aS'(heaven'
p4351
aS'(heaven'
p4352
aS'(heaven'
p4353
aS'(heaven'
p4354
aS'<N>'
p4355
aS'<N>'
p4356
aS'(heaven'
p4357
aS'<N>'
p4358
aS'<N>'
p4359
ag197
asg1697
(lp4360
S'done'
p4361
aS'<N>'
p4362
asg3992
(lp4363
S'as'
p4364
asS'hoes)'
p4365
(lp4366
S'<N>'
p4367
asg3026
(lp4368
g1164
aS'from'
p4369
ag2096
ag1902
ag1179
ag3056
aS'cool.'
p4370
ag866
aS'this'
p4371
aS'cooler'
p4372
aS'cool.'
p4373
aS"leanin'."
p4374
aS'cool.'
p4375
ag315
ag1662
aS'it'
p4376
ag926
aS'not'
p4377
ag2829
aS'what'
p4378
aS'in'
p4379
aS'unlike'
p4380
aS'super'
p4381
aS'super'
p4382
aS'out'
p4383
aS'out'
p4384
aS'fucked'
p4385
aS"clockin'"
p4386
aS"tick-tockin'"
p4387
ag424
aS"havin'"
p4388
ag1653
aS'saluted'
p4389
aS'saluted'
p4390
aS'saluted'
p4391
aS'crazy,'
p4392
aS'that'
p4393
aS'that'
p4394
aS'up'
p4395
aS'somethin'
p4396
aS'ball,'
p4397
aS'ball,'
p4398
aS'so'
p4399
aS'so'
p4400
aS'so'
p4401
aS'so'
p4402
aS'so'
p4403
aS'so'
p4404
aS'so'
p4405
aS'so'
p4406
aS'here'
p4407
aS'shady'
p4408
aS'feeling'
p4409
aS'shady'
p4410
aS'feeling'
p4411
aS'close'
p4412
aS'the'
p4413
aS'at'
p4414
aS'the'
p4415
aS'still'
p4416
aS'livin'
p4417
aS'fresh'
p4418
aS'super'
p4419
ag3388
ag1326
aS'the'
p4420
aS'the'
p4421
aS'bout'
p4422
aS'livin'
p4423
aS'fresh'
p4424
ag3640
aS'gone'
p4425
aS'ready'
p4426
aS'ready'
p4427
aS'ready'
p4428
aS'ready'
p4429
aS'with'
p4430
aS'just'
p4431
ag315
aS'just'
p4432
asg4285
(lp4433
S'at'
p4434
aS'at'
p4435
aS'at'
p4436
aS'at'
p4437
aS'at'
p4438
aS'at'
p4439
aS'at'
p4440
aS'at'
p4441
asS"Don't"
p4442
(lp4443
g3138
aS'be'
p4444
aS'be'
p4445
aS'want'
p4446
aS'be'
p4447
aS'be'
p4448
asg1787
(lp4449
g3234
asg1912
(lp4450
g1
asg1782
(lp4451
S'tense'
p4452
aS'<N>'
p4453
asS'pass'
p4454
(lp4455
S'in'
p4456
asS'him?'
p4457
(lp4458
S'<N>'
p4459
aS'<N>'
p4460
asg2966
(lp4461
g813
aS'he'
p4462
aS'if'
p4463
ag172
aS'up?'
p4464
aS'up?'
p4465
aS'up?'
p4466
aS'up?'
p4467
aS'up?'
p4468
aS'up?'
p4469
aS'up?'
p4470
aS'up?'
p4471
aS'up?'
p4472
aS'up?'
p4473
aS'up?'
p4474
aS'up?'
p4475
aS'up?'
p4476
aS'up?'
p4477
aS'up?'
p4478
aS'up?'
p4479
aS'up?'
p4480
aS'up?'
p4481
aS'up?'
p4482
aS'up?'
p4483
aS'up?'
p4484
aS'up?'
p4485
aS'up?'
p4486
aS'you'
p4487
ag162
aS'the'
p4488
aS'time'
p4489
aS"I'm"
p4490
ag162
aS'you'
p4491
aS'the'
p4492
aS'the'
p4493
aS'the'
p4494
aS'niggas'
p4495
ag162
aS'you'
p4496
aS'other'
p4497
aS'you'
p4498
aS'being'
p4499
aS'most'
p4500
aS'it'
p4501
aS'about'
p4502
aS'is'
p4503
aS'it'
p4504
aS'about'
p4505
aS'up?'
p4506
asS'sun'
p4507
(lp4508
S'is'
p4509
aS'and'
p4510
asS'him,'
p4511
(lp4512
S'<N>'
p4513
asS'diff,'
p4514
(lp4515
S'what'
p4516
asS'Pimp'
p4517
(lp4518
S'tight'
p4519
aS'tight'
p4520
asS'tags'
p4521
(lp4522
S'<N>'
p4523
asg4230
(lp4524
S'now'
p4525
asg817
(lp4526
g3243
asg1584
(lp4527
S'of,'
p4528
aS'of,'
p4529
aS'of,'
p4530
asS'(see'
p4531
(lp4532
S'you'
p4533
asS'yourself,'
p4534
(lp4535
g1
ag1
asg3963
(lp4536
S'up'
p4537
aS'friends'
p4538
aS'the'
p4539
asg3081
(lp4540
g1
asg4070
(lp4541
S'yourself,'
p4542
aS'of'
p4543
aS'about'
p4544
asg2669
(lp4545
S'the'
p4546
asg3510
(lp4547
g162
ag162
ag162
ag162
aS'but'
p4548
aS'but'
p4549
asg556
(lp4550
S'this'
p4551
asS'Columbus'
p4552
(lp4553
S'what'
p4554
asg848
(lp4555
S'met'
p4556
asg2241
(lp4557
S'<N>'
p4558
asg1746
(lp4559
S'outcasts'
p4560
asS'two'
p4561
(lp4562
g343
aS'pretty'
p4563
aS'pretty'
p4564
asg1482
(lp4565
g2726
aS'<N>'
p4566
aS'or'
p4567
aS'or'
p4568
aS'perfect'
p4569
asg3892
(lp4570
g1119
asS'knows'
p4571
(lp4572
S'Kid'
p4573
asg1174
(lp4574
S'<N>'
p4575
ag197
asg2177
(lp4576
S'rocket'
p4577
aS"takin'"
p4578
aS'on'
p4579
ag4514
ag1457
ag3127
aS'going'
p4580
aS'going'
p4581
asg4316
(lp4582
S'on'
p4583
asg2260
(lp4584
S'<N>'
p4585
asS'Followed'
p4586
(lp4587
S'by'
p4588
asS'chardonnay'
p4589
(lp4590
S'and'
p4591
asS'SK'
p4592
(lp4593
S'what'
p4594
asg4120
(lp4595
S'to'
p4596
asS'Your'
p4597
(lp4598
S'mirror'
p4599
ag2513
aS'friends'
p4600
ag1293
aS'my'
p4601
asg3876
(lp4602
S'<N>'
p4603
asg3086
(lp4604
S'niggas'
p4605
asg1793
(lp4606
S'<N>'
p4607
asS'attain'
p4608
(lp4609
S'(what,'
p4610
asS'airplane'
p4611
(lp4612
S'in'
p4613
asS'goal'
p4614
(lp4615
S'and'
p4616
asg532
(lp4617
S'<N>'
p4618
asS'fame'
p4619
(lp4620
g1053
asS'grizzle,'
p4621
(lp4622
g162
asg586
(lp4623
S'<N>'
p4624
asg4260
(lp4625
g3031
asg315
(lp4626
g2656
aS'record.'
p4627
aS'record.'
p4628
aS'record.'
p4629
ag883
aS'record.'
p4630
aS'record...'
p4631
ag1159
ag1881
aS'mill.'
p4632
ag2100
ag2230
ag2814
ag3953
ag2171
aS'pull'
p4633
ag3383
aS'look'
p4634
aS'line,'
p4635
ag2826
aS'dream'
p4636
aS'fan,'
p4637
aS'pushover,'
p4638
aS'nigga'
p4639
aS'Spanish'
p4640
aS'lick,'
p4641
aS'sea'
p4642
ag4176
ag1337
ag2280
aS'clip'
p4643
ag4614
aS'grind'
p4644
ag357
aS'substance'
p4645
aS'success'
p4646
ag1402
aS'damn'
p4647
aS'class'
p4648
aS'kite'
p4649
aS'few'
p4650
aS'fuck'
p4651
aS'fuck'
p4652
aS'good'
p4653
ag4611
aS'bird'
p4654
aS'brew'
p4655
aS'curtain'
p4656
aS'woman'
p4657
ag2876
ag773
aS'trip'
p4658
aS'little'
p4659
aS'chance,'
p4660
ag2890
ag3159
ag1423
aS'zo'
p4661
ag2350
aS'sign)'
p4662
aS'new'
p4663
ag3758
aS'listener'
p4664
aS'man'
p4665
aS'bitch'
p4666
aS'nice'
p4667
aS'lie'
p4668
aS'nigga'
p4669
aS'lie'
p4670
aS'nigga'
p4671
ag2093
aS'brew'
p4672
aS'country'
p4673
ag3079
ag2678
asg4408
(lp4674
S'girl'
p4675
aS'girl'
p4676
asS'Deep'
p4677
(lp4678
S'in'
p4679
asg1735
(lp4680
S'(what,'
p4681
asg4636
(lp4682
S'of'
p4683
aS'in'
p4684
aS'<N>'
p4685
aS'of'
p4686
asg4083
(lp4687
S'you'
p4688
asg3315
(lp4689
S'the'
p4690
aS'on'
p4691
asg3102
(lp4692
S'my'
p4693
asS'What'
p4694
(lp4695
g162
aS'you'
p4696
aS'it'
p4697
aS'can'
p4698
asS'help'
p4699
(lp4700
S'with,'
p4701
aS'me'
p4702
asg1014
(lp4703
S'understand,'
p4704
aS'even'
p4705
ag1250
aS'stop'
p4706
aS'even'
p4707
ag4608
aS'see'
p4708
aS'want'
p4709
ag618
aS'be'
p4710
aS'even'
p4711
aS'call'
p4712
aS'go'
p4713
ag1029
aS'cry,'
p4714
aS'need'
p4715
aS'cry,'
p4716
aS'cry,'
p4717
aS'look'
p4718
aS'have'
p4719
asS'uh,'
p4720
(lp4721
S'uhh'
p4722
asg3311
(lp4723
S'you'
p4724
asg2394
(lp4725
S'the'
p4726
aS'<N>'
p4727
aS'the'
p4728
aS'me'
p4729
asS'(going'
p4730
(lp4731
g3292
aS'nowhere)'
p4732
aS'nowhere)'
p4733
asg837
(lp4734
S'of'
p4735
asg4126
(lp4736
g4531
asg2989
(lp4737
g4167
asg3004
(lp4738
S'<N>'
p4739
asS'Dunkin'
p4740
(lp4741
S'Donut'
p4742
asg3455
(lp4743
S'to'
p4744
aS'the'
p4745
aS'the'
p4746
aS'the'
p4747
aS'the'
p4748
aS'the'
p4749
aS'the'
p4750
asg226
(lp4751
g1
ag1
asg4422
(lp4752
S'to'
p4753
asg4103
(lp4754
S'see'
p4755
aS'relocate,'
p4756
asS'it,'
p4757
(lp4758
S'Kid'
p4759
ag2355
ag3651
asg4653
(lp4760
S'guy'
p4761
aS'just'
p4762
asg4194
(lp4763
S'<N>'
p4764
aS'<N>'
p4765
aS'<N>'
p4766
asS'it)'
p4767
(lp4768
S'<N>'
p4769
asg3987
(lp4770
S"thinkin'"
p4771
aS'fuck'
p4772
asS'Supreme.'
p4773
(lp4774
S'<N>'
p4775
asS'Michael'
p4776
(lp4777
S"Watt's"
p4778
asg4662
(lp4779
S'<N>'
p4780
asg4722
(lp4781
S'<N>'
p4782
asS'great,'
p4783
(lp4784
S'you'
p4785
asg1230
(lp4786
S"I'm"
p4787
asg3448
(lp4788
S'say'
p4789
aS'be'
p4790
asg2973
(lp4791
S'<N>'
p4792
asg2033
(lp4793
S'you'
p4794
aS'you'
p4795
asg2972
(lp4796
S'that'
p4797
asS'Sounds'
p4798
(lp4799
S'of'
p4800
asg4641
(lp4801
g1864
asS'heavy'
p4802
(lp4803
S'amounts'
p4804
asg2718
(lp4805
g4571
asS'thick'
p4806
(lp4807
S'and'
p4808
asg2540
(lp4809
g2111
ag1408
aS'need'
p4810
aS'need'
p4811
aS'need'
p4812
asg1769
(lp4813
g162
asg940
(lp4814
S'my'
p4815
asg3923
(lp4816
S'<N>'
p4817
asg4387
(lp4818
S'<N>'
p4819
asg3786
(lp4820
S'funny'
p4821
aS'like'
p4822
asS'Class'
p4823
(lp4824
S'topping'
p4825
asS'Cool'
p4826
(lp4827
S'with'
p4828
asg3874
(lp4829
S"can't"
p4830
aS'you'
p4831
aS'nigga'
p4832
asg1712
(lp4833
S'<N>'
p4834
asg908
(lp4835
g2462
asg592
(lp4836
S'ever'
p4837
aS'be'
p4838
asg1688
(lp4839
S"I'm"
p4840
aS"I'm"
p4841
aS"I'm"
p4842
aS"I'm"
p4843
aS"I'm"
p4844
aS"I'm"
p4845
asS'put'
p4846
(lp4847
S'your'
p4848
aS'your'
p4849
aS'the'
p4850
asg4281
(lp4851
S'you'
p4852
asg612
(lp4853
S'<N>'
p4854
asg2577
(lp4855
S'you'
p4856
asS'slipped'
p4857
(lp4858
S'up'
p4859
asg1007
(lp4860
S'the'
p4861
aS'it,'
p4862
aS'about'
p4863
aS'exactly'
p4864
aS'so'
p4865
aS'if'
p4866
ag4783
aS'it'
p4867
aS'like'
p4868
aS'<N>'
p4869
aS'this'
p4870
asg1726
(lp4871
S'when'
p4872
asS'fancy'
p4873
(lp4874
S'shit'
p4875
asg3879
(lp4876
S'<N>'
p4877
asg4361
(lp4878
S'aint'
p4879
asg1852
(lp4880
S'the'
p4881
asg3492
(lp4882
S'if'
p4883
asS'heads'
p4884
(lp4885
S'back'
p4886
asS'Models'
p4887
(lp4888
S'we'
p4889
asS'least'
p4890
(lp4891
S'for'
p4892
asg1866
(lp4893
S'<N>'
p4894
aS"eatin'"
p4895
aS'<N>'
p4896
asS'paint'
p4897
(lp4898
S'the'
p4899
asg2357
(lp4900
S'the'
p4901
aS'the'
p4902
asS'Officer?'
p4903
(lp4904
S'Nice'
p4905
asg1809
(lp4906
S'superstar,'
p4907
asg3273
(lp4908
g674
aS'them'
p4909
asg2449
(lp4910
g3813
aS'of'
p4911
aS'words'
p4912
asg4638
(lp4913
S'<N>'
p4914
asg1693
(lp4915
S'O'
p4916
asS'head,'
p4917
(lp4918
S'They'
p4919
asS'Gon'
p4920
(lp4921
S'wit'
p4922
asg4273
(lp4923
g4699
aS'<N>'
p4924
aS'<N>'
p4925
ag4040
aS'made'
p4926
aS'please'
p4927
asS'At,'
p4928
(lp4929
S'at,'
p4930
asg949
(lp4931
S'in'
p4932
asg2401
(lp4933
S'like'
p4934
asS'Got'
p4935
(lp4936
S'me'
p4937
aS'enough'
p4938
asg2506
(lp4939
g1396
aS"CD's"
p4940
asg4668
(lp4941
S'<N>'
p4942
aS'<N>'
p4943
asg2690
(lp4944
S'(what,'
p4945
asg2323
(lp4946
S'<N>'
p4947
asg564
(lp4948
g2321
asS'With'
p4949
(lp4950
S'my'
p4951
asg4704
(lp4952
S'he'
p4953
asg4759
(lp4954
S'Cudi'
p4955
aS'Cudi'
p4956
asS'Go,'
p4957
(lp4958
S'go'
p4959
asg3417
(lp4960
S'the'
p4961
aS'<N>'
p4962
aS'me'
p4963
asg4252
(lp4964
S'the'
p4965
aS'what'
p4966
asg4500
(lp4967
S"y'all"
p4968
asS'charm'
p4969
(lp4970
S'<N>'
p4971
asS"'cause"
p4972
(lp4973
S'day'
p4974
aS'when'
p4975
asS'The'
p4976
(lp4977
S'hype'
p4978
aS'charts'
p4979
ag4621
ag2683
aS'lonely'
p4980
aS'lonely'
p4981
aS'lonely'
p4982
aS'lonely'
p4983
ag3071
ag2743
ag4507
aS'lonely'
p4984
aS'one'
p4985
aS'ones'
p4986
ag415
asS'clear'
p4987
(lp4988
g4246
aS'<N>'
p4989
asS'yeah,'
p4990
(lp4991
S"I'm"
p4992
aS'how'
p4993
asg4006
(lp4994
S'<N>'
p4995
aS'<N>'
p4996
aS'<N>'
p4997
aS'<N>'
p4998
asg2685
(lp4999
g3643
aS'seems'
p5000
ag4969
asS'Stands'
p5001
(lp5002
g3666
asg1742
(lp5003
S'<N>'
p5004
asS'fine'
p5005
(lp5006
S'<N>'
p5007
aS'as'
p5008
asg4248
(lp5009
g4534
aS'<N>'
p5010
ag315
asg4701
(lp5011
S'uh'
p5012
asS'justice'
p5013
(lp5014
S'<N>'
p5015
asg3624
(lp5016
S'<N>'
p5017
asg1722
(lp5018
g4823
asg4563
(lp5019
g4342
aS'woman'
p5020
asg3182
(lp5021
g1
ag1
asg931
(lp5022
S'mind'
p5023
aS'mind'
p5024
aS'mind'
p5025
aS'mind'
p5026
ag1899
ag2888
aS'mind'
p5027
aS'mind'
p5028
aS'mind'
p5029
asg2537
(lp5030
g1680
ag2253
aS'the'
p5031
asS'While'
p5032
(lp5033
S'she'
p5034
asg3
(lp5035
g3980
ag4237
ag4597
aS'You'
p5036
aS'As'
p5037
ag1
ag2837
ag1
aS'Now'
p5038
ag4976
aS'This'
p5039
aS'And'
p5040
aS'And'
p5041
aS'How'
p5042
ag1
aS'There'
p5043
ag1
ag3013
ag1122
ag5001
aS'Now'
p5044
aS'How'
p5045
ag1
aS'There'
p5046
aS'50'
p5047
ag1
aS'You'
p5048
aS'Your'
p5049
ag1998
aS'And'
p5050
ag1045
ag1
aS'And'
p5051
ag1
ag2447
ag3612
aS'This'
p5052
aS'Spending'
p5053
aS"It's"
p5054
aS'Some'
p5055
ag1
aS'There'
p5056
aS'50'
p5057
ag162
aS"Ya'll"
p5058
ag1
ag770
ag2817
ag1
ag1421
ag162
ag1
aS'And'
p5059
ag1012
ag1
aS'They'
p5060
ag162
ag1
ag1001
ag1643
aS'Oh'
p5061
ag1
ag162
ag947
ag1
aS"I'm"
p5062
ag2945
ag1
aS'[Chorus:]'
p5063
aS'"I'
p5064
ag162
aS'And'
p5065
aS'Cleveland'
p5066
aS'Cleveland'
p5067
aS'Cleveland'
p5068
aS'Cleveland'
p5069
ag1
aS'[Verse'
p5070
aS'Yup'
p5071
ag162
ag1
ag2242
aS'and'
p5072
ag1
aS'Some'
p5073
aS'some'
p5074
ag1
aS'Some'
p5075
ag162
ag1
aS'[Bridge:]'
p5076
aS'"We'
p5077
aS'Aint'
p5078
ag1
aS'You'
p5079
aS'Take'
p5080
ag1
aS'After'
p5081
aS'Cleveland'
p5082
ag1
aS'[Chorus:]'
p5083
aS'"I'
p5084
ag162
aS'And'
p5085
aS'Cleveland'
p5086
aS'Cleveland'
p5087
aS'Cleveland'
p5088
aS'Cleveland'
p5089
ag1005
aS'They'
p5090
ag1
aS'Step'
p5091
ag238
ag3325
aS"Tryin'"
p5092
aS'Like'
p5093
aS'Fought'
p5094
ag4935
ag3084
ag162
ag308
aS'Like'
p5095
ag692
aS'Scott'
p5096
ag923
aS'They'
p5097
ag162
ag3307
ag1
ag2295
aS'They'
p5098
ag1
ag2789
ag3711
aS"Won't"
p5099
aS'See'
p5100
aS'Like'
p5101
aS'But'
p5102
ag3375
ag4740
ag162
ag3743
aS'Brooklyn'
p5103
aS"There's"
p5104
ag671
ag2288
aS'And'
p5105
aS'So'
p5106
ag703
aS"I'm"
p5107
aS'And'
p5108
ag162
ag2420
aS'How'
p5109
aS'How'
p5110
ag2491
aS"That's"
p5111
aS'And'
p5112
ag1056
ag1
aS'[Verse'
p5113
aS'Whoa,'
p5114
aS'They'
p5115
ag4920
ag3605
ag4057
aS'Hey,'
p5116
ag162
aS'And'
p5117
aS'Later'
p5118
ag3733
ag3117
aS'The'
p5119
aS'The'
p5120
aS'In'
p5121
ag2233
ag897
ag1
ag1170
ag3363
aS'You'
p5122
ag2691
aS'And'
p5123
ag1
aS'[Verse'
p5124
ag4957
ag3039
ag4677
aS'Salute'
p5125
ag1267
ag162
ag701
aS'Steve'
p5126
aS'Proceed,'
p5127
aS'If'
p5128
aS'Body,'
p5129
ag2402
aS'So'
p5130
ag258
ag1641
ag1
aS'[Chorus'
p5131
ag1
ag4051
ag1
aS'Plain'
p5132
ag2221
ag2016
aS'Rob'
p5133
aS'Wale'
p5134
ag2423
aS'88'
p5135
ag434
ag4592
aS'My'
p5136
aS'10.Deep'
p5137
aS'Choo'
p5138
aS'My'
p5139
aS'My'
p5140
aS'Pitbull'
p5141
aS'Big'
p5142
ag957
ag807
aS'Brooklyn'
p5143
aS'Cleveland'
p5144
aS'Cincinnati'
p5145
ag4552
ag154
ag346
ag2291
ag162
ag162
ag4694
aS'Now'
p5146
ag2224
ag162
ag162
ag1
aS'[Chorus:]'
p5147
ag4972
aS'The'
p5148
aS"He's"
p5149
aS'The'
p5150
aS'Day'
p5151
aS'The'
p5152
aS"He's"
p5153
aS'The'
p5154
ag1
aS'[Kid'
p5155
ag920
aS'The'
p5156
aS"He's"
p5157
aS'Within'
p5158
aS'The'
p5159
ag2736
aS'The'
p5160
ag3595
ag1
ag1463
ag1
aS'[Kid'
p5161
ag3366
ag2451
aS'He'
p5162
aS'The'
p5163
aS'The'
p5164
aS'They'
p5165
aS'He'
p5166
aS'To'
p5167
aS'To'
p5168
aS'To'
p5169
ag1
aS'[Chorus]'
p5170
ag1
ag4928
aS'If'
p5171
aS'To'
p5172
aS'Get'
p5173
aS'See,'
p5174
ag1139
aS'How'
p5175
aS'Yeah,'
p5176
aS"I'm"
p5177
aS'To'
p5178
ag162
aS'See'
p5179
aS'He'
p5180
ag3259
aS'So'
p5181
ag2371
aS'One'
p5182
ag162
aS'The'
p5183
aS'Now'
p5184
aS'86'
p5185
aS"Soarin'"
p5186
ag1
aS'[Chorus]'
p5187
ag2528
aS'Down'
p5188
ag1
aS'For'
p5189
aS'To'
p5190
aS'But'
p5191
aS'To'
p5192
ag162
aS'For'
p5193
aS'But'
p5194
ag162
aS'They'
p5195
ag160
aS'Slow'
p5196
aS"I'm"
p5197
aS'Once'
p5198
ag2885
aS'When'
p5199
ag162
aS'My'
p5200
ag3833
aS'Now'
p5201
ag2031
aS'Now'
p5202
aS'Think'
p5203
aS'Down'
p5204
aS'Down'
p5205
ag1
aS'[Chorus'
p5206
ag1
aS'Down'
p5207
aS'When'
p5208
ag162
ag4798
ag2852
aS'Now'
p5209
aS'Ask'
p5210
aS'Mouth'
p5211
aS'Aw'
p5212
ag162
aS"Talkin'"
p5213
aS"Don't"
p5214
ag715
ag1
aS'Embrace'
p5215
aS'Embrace'
p5216
ag162
aS'But'
p5217
ag983
aS'Embrace'
p5218
aS'And'
p5219
ag1
aS'See'
p5220
aS'Keep'
p5221
ag4826
ag162
aS'How'
p5222
ag162
aS'Look'
p5223
aS'Honest'
p5224
aS'And'
p5225
aS'But'
p5226
aS'Malarkey'
p5227
ag162
aS"Don't"
p5228
aS'All'
p5229
ag1
aS'Embrace'
p5230
aS'Embrace'
p5231
ag162
aS'But'
p5232
aS'Please'
p5233
aS'Embrace'
p5234
aS'And'
p5235
ag1
aS'Embrace'
p5236
aS'Embrace'
p5237
ag162
aS'But'
p5238
aS'Please'
p5239
aS'Embrace'
p5240
ag1
ag4202
ag162
ag1477
aS"I'll"
p5241
ag2324
ag2782
aS'Sometimes'
p5242
ag3858
aS'No'
p5243
ag1
aS"I'm"
p5244
aS"I'm"
p5245
aS'No'
p5246
aS"I'm"
p5247
aS"I'm"
p5248
ag1
aS'Oh'
p5249
ag2578
aS'Or'
p5250
aS'This'
p5251
aS"We'll"
p5252
aS'You'
p5253
aS'You'
p5254
aS'Like'
p5255
aS'And'
p5256
ag162
aS'You'
p5257
aS'You'
p5258
aS'You'
p5259
ag1
aS'Embrace'
p5260
aS'Embrace'
p5261
ag162
aS'But'
p5262
aS'Please'
p5263
aS'Embrace'
p5264
aS'And'
p5265
ag1
aS'Embrace'
p5266
aS'Embrace'
p5267
ag162
aS'But'
p5268
aS'Please'
p5269
aS'Embrace'
p5270
aS'And'
p5271
ag1
aS'Oooo'
p5272
aS'Oooo'
p5273
aS'And'
p5274
aS'In'
p5275
ag751
aS'Have'
p5276
aS'Heaven'
p5277
ag1
aS'Have'
p5278
ag2708
aS'At'
p5279
ag2380
ag1875
ag1101
ag1333
aS'Like'
p5280
aS'To'
p5281
ag944
aS'You'
p5282
aS'Like'
p5283
ag4586
ag4887
aS'These'
p5284
ag2792
aS'This'
p5285
ag1
aS'Have'
p5286
aS'Heaven'
p5287
aS'Oh'
p5288
ag2864
aS'Heaven'
p5289
ag1
ag3727
aS'Oh,'
p5290
ag1412
aS'Man'
p5291
aS'Oh,'
p5292
aS"Can't"
p5293
aS'God'
p5294
aS'Oh,'
p5295
aS"Can't"
p5296
aS'God'
p5297
aS'Oh,'
p5298
aS"Can't"
p5299
ag1
aS'Heaven'
p5300
aS'Heaven'
p5301
ag1
aS'Have'
p5302
aS'Heaven'
p5303
aS'Oh,'
p5304
aS'Heaven'
p5305
ag162
ag162
aS'You'
p5306
aS'You'
p5307
ag1
aS'[VERSE'
p5308
aS'They'
p5309
aS'They'
p5310
ag162
ag3289
aS'Everything'
p5311
ag1665
ag1098
ag1107
ag162
ag1
ag2719
aS'But'
p5312
aS'They'
p5313
aS'Like'
p5314
aS'Feelin'
p5315
aS'But'
p5316
aS'They'
p5317
aS'Like'
p5318
aS'Feelin'
p5319
ag1
aS'[CHORUS]'
p5320
ag162
aS"I'm"
p5321
aS'And'
p5322
aS'Do'
p5323
ag162
aS"I'm"
p5324
aS"I'm"
p5325
ag1
aS'[VERSE'
p5326
ag3959
aS"It's"
p5327
aS'All'
p5328
aS'The'
p5329
aS'Never'
p5330
aS"I'm"
p5331
aS"Don't"
p5332
ag162
aS'The'
p5333
aS'But'
p5334
ag1
aS'[HOOK]'
p5335
aS'My'
p5336
ag162
ag2058
aS'But'
p5337
aS'But'
p5338
ag162
aS'But'
p5339
ag162
ag1
aS'[CHORUS]'
p5340
ag993
aS'Just'
p5341
ag1
aS'Going'
p5342
aS'Just'
p5343
ag1
ag2759
aS'(And'
p5344
aS'(And'
p5345
aS'(And'
p5346
ag1
aS'Yeah,'
p5347
aS'Aloha'
p5348
aS'Got'
p5349
aS'To'
p5350
aS'Oh'
p5351
aS'If'
p5352
ag2377
ag3803
ag1
aS'Get'
p5353
ag1113
ag1
aS'What'
p5354
aS'Maybe'
p5355
aS'No'
p5356
ag2756
aS'And'
p5357
ag1659
ag274
ag392
aS"Livin'"
p5358
ag2834
aS'What'
p5359
ag2055
aS'You'
p5360
aS'Like'
p5361
ag1
aS'[Chorus]'
p5362
ag1
ag3911
ag1
ag162
ag162
aS'Really'
p5363
aS'Really'
p5364
ag3634
ag162
ag162
ag162
ag162
aS'You'
p5365
aS'You'
p5366
aS'Man,'
p5367
ag162
ag1
ag2152
ag2302
aS'Ay,'
p5368
ag1221
ag1
aS'[Verse'
p5369
aS'Girl'
p5370
ag3370
aS"Don't"
p5371
ag162
aS"Let's"
p5372
aS'Girl'
p5373
aS'This'
p5374
aS'So'
p5375
ag162
aS"I'm"
p5376
aS'So'
p5377
ag1995
aS"Don't"
p5378
aS"I'ma"
p5379
ag1
aS'[Chorus'
p5380
aS'You'
p5381
ag2282
aS"I'm"
p5382
aS"Let's"
p5383
ag1
aS'[Verse'
p5384
aS'When'
p5385
aS'Your'
p5386
aS'But'
p5387
aS'You'
p5388
aS'By'
p5389
aS'Or'
p5390
aS'Girl'
p5391
aS'And'
p5392
ag162
ag3592
ag3217
aS'Girl'
p5393
ag1
aS'[Chorus]'
p5394
aS'You'
p5395
aS"Ain't"
p5396
aS"I'm"
p5397
aS"Let's"
p5398
ag1
aS'So'
p5399
ag1
aS'Just'
p5400
ag2750
aS'Need'
p5401
ag162
ag1460
aS'Label'
p5402
aS"I'm"
p5403
ag241
aS'When'
p5404
ag731
aS'Six-figure'
p5405
aS'Everybody'
p5406
aS'Take'
p5407
ag3261
aS"'Till"
p5408
aS"I'm"
p5409
aS"That's"
p5410
aS'You'
p5411
aS'Now'
p5412
aS'Be'
p5413
ag3618
aS'And'
p5414
ag1891
aS'We'
p5415
aS'No'
p5416
ag5032
aS"I'm"
p5417
aS'No'
p5418
ag4949
ag3267
aS'Now'
p5419
ag2575
aS'And'
p5420
aS'God'
p5421
ag1
aS'Oh,'
p5422
aS'All'
p5423
aS"Who's"
p5424
aS"Who's"
p5425
aS'How'
p5426
aS'How'
p5427
aS"I'm"
p5428
aS'And'
p5429
aS'My'
p5430
aS'So'
p5431
aS'From'
p5432
aS'Damned'
p5433
ag4517
aS'Gatta'
p5434
ag1
aS'Oh'
p5435
aS"I'm"
p5436
aS'Candy'
p5437
aS"Can't"
p5438
ag3228
aS"I'm"
p5439
aS'Pleaseee,'
p5440
ag162
aS'Gatta'
p5441
aS"I'm"
p5442
aS"I'm"
p5443
ag2694
aS'But'
p5444
ag3589
aS'Like'
p5445
aS'Back'
p5446
aS'Now'
p5447
aS'And'
p5448
ag162
aS'Keep'
p5449
aS'You'
p5450
ag2049
aS'That'
p5451
ag376
ag1
aS'Ayyy,'
p5452
aS"I'm"
p5453
aS'And'
p5454
aS'My'
p5455
aS'So'
p5456
aS'From'
p5457
aS'Damned'
p5458
aS'Pimp'
p5459
aS'Gatta'
p5460
aS'Plain'
p5461
ag1
aS'My'
p5462
aS'Sometimes'
p5463
aS'So'
p5464
aS'If'
p5465
aS'Be'
p5466
aS'Baby'
p5467
aS'Cursed'
p5468
aS'Have'
p5469
aS'Beyond'
p5470
ag1
aS'And'
p5471
aS'But'
p5472
aS'And'
p5473
aS"'Cuz"
p5474
ag1
aS'My'
p5475
aS'God'
p5476
ag162
ag1989
aS'If'
p5477
ag3675
ag2069
aS'Play'
p5478
ag1
aS'And'
p5479
aS'But'
p5480
aS'And'
p5481
aS"'Cuz"
p5482
aS'And'
p5483
aS'So'
p5484
aS'And'
p5485
aS"'Cuz"
p5486
aS'See'
p5487
aS'Understand'
p5488
ag718
aS'Yeah,'
p5489
aS'But'
p5490
aS'At'
p5491
aS"I'm"
p5492
aS"I'm"
p5493
aS'You'
p5494
aS"I'm"
p5495
aS'You'
p5496
aS'Your'
p5497
aS'You'
p5498
ag162
ag1216
aS'Lay'
p5499
aS'Can'
p5500
aS'Your'
p5501
aS'But'
p5502
aS'My'
p5503
aS"I'm"
p5504
ag1
ag3334
aS'However'
p5505
aS'Whenever'
p5506
aS'Whenever'
p5507
ag1
aS'Whenever'
p5508
aS'Whenever'
p5509
ag1
aS'Whenever'
p5510
aS'Whenever'
p5511
ag1
aS'Whenever'
p5512
aS'Whenever'
p5513
asg282
(lp5514
S'<N>'
p5515
aS'<N>'
p5516
aS'(?)'
p5517
aS'<N>'
p5518
asg5174
(lp5519
S"I'm"
p5520
asg4978
(lp5521
S'and'
p5522
asg1727
(lp5523
S'of'
p5524
asg1173
(lp5525
S'<N>'
p5526
asg1723
(lp5527
S'that'
p5528
asg5189
(lp5529
S'even'
p5530
aS'the'
p5531
asg1795
(lp5532
S'was'
p5533
asg1149
(lp5534
S'my'
p5535
aS'the'
p5536
ag162
aS"I'm"
p5537
aS'no'
p5538
aS'this'
p5539
aS'what'
p5540
aS'<N>'
p5541
aS'you'
p5542
aS'what'
p5543
asS'are'
p5544
(lp5545
g199
aS'better'
p5546
aS'through,'
p5547
aS'cool'
p5548
ag1032
aS'me'
p5549
ag315
aS'my'
p5550
asg4642
(lp5551
S'<N>'
p5552
asg3255
(lp5553
S'to'
p5554
aS'to'
p5555
asg204
(lp5556
g799
asg4071
(lp5557
g1227
aS'keep'
p5558
aS'<N>'
p5559
aS'<N>'
p5560
aS"don't"
p5561
aS'tell'
p5562
aS"don't"
p5563
aS"don't"
p5564
asg1826
(lp5565
g162
asS'probably'
p5566
(lp5567
S'think'
p5568
aS'think'
p5569
asS'watchin'
p5570
(lp5571
S'my'
p5572
aS'my'
p5573
asS'solo'
p5574
(lp5575
g1193
asg2992
(lp5576
S'kind'
p5577
asg1509
(lp5578
S'blue'
p5579
aS'so'
p5580
aS'you,'
p5581
aS'me'
p5582
aS'you,'
p5583
aS'so'
p5584
asS'last'
p5585
(lp5586
S'<N>'
p5587
aS'laugh'
p5588
ag652
asg760
(lp5589
S'<N>'
p5590
asg2596
(lp5591
S'the'
p5592
asg4637
(lp5593
S'<N>'
p5594
asg2189
(lp5595
S'<N>'
p5596
asg5126
(lp5597
S'Urkel'
p5598
asS'above,'
p5599
(lp5600
S'above,'
p5601
aS'above...'
p5602
aS'above,'
p5603
aS'above...'
p5604
asS'changed...bro..?'
p5605
(lp5606
S'<N>'
p5607
asg2984
(lp5608
S'<N>'
p5609
asg1862
(lp5610
S'on'
p5611
asg1758
(lp5612
S'world'
p5613
asg1728
(lp5614
g162
asg5137
(lp5615
S'what'
p5616
asg1808
(lp5617
g1008
asg2087
(lp5618
S'in'
p5619
aS'<N>'
p5620
asg615
(lp5621
S'tangerine'
p5622
asg2065
(lp5623
S'my'
p5624
asg3434
(lp5625
g2769
asg1269
(lp5626
S'niggas'
p5627
asg5478
(lp5628
S'it'
p5629
asg1715
(lp5630
S'ice-grill'
p5631
asS'lets'
p5632
(lp5633
S'make'
p5634
asg1025
(lp5635
g2617
ag162
aS'bro'
p5636
asg1721
(lp5637
g3845
asS'slips'
p5638
(lp5639
S'into'
p5640
asg1367
(lp5641
g1260
asg3048
(lp5642
S'<N>'
p5643
asS'else'
p5644
(lp5645
g4189
aS'included'
p5646
asS'understand'
p5647
(lp5648
S'me'
p5649
asg3024
(lp5650
S'be'
p5651
aS'be'
p5652
asg1825
(lp5653
S'<N>'
p5654
asg836
(lp5655
S'inside,'
p5656
aS'behind,'
p5657
aS'for'
p5658
aS'at'
p5659
aS'the'
p5660
aS'at'
p5661
asS'wow-wow-wow)'
p5662
(lp5663
S'<N>'
p5664
asg5468
(lp5665
S'but'
p5666
asS'while'
p5667
(lp5668
S"I'm"
p5669
aS'<N>'
p5670
ag3164
asg5272
(lp5671
S'<N>'
p5672
aS'<N>'
p5673
asg1366
(lp5674
S'have'
p5675
aS'the'
p5676
aS'something'
p5677
asg823
(lp5678
S'<N>'
p5679
aS'for'
p5680
aS'for'
p5681
aS'for'
p5682
aS'for'
p5683
aS'for'
p5684
aS'slide'
p5685
asg1684
(lp5686
g1
asg3276
(lp5687
S'to'
p5688
asg4821
(lp5689
S'<N>'
p5690
asS'away,'
p5691
(lp5692
S'if'
p5693
asg1936
(lp5694
S'<N>'
p5695
aS'<N>'
p5696
asg828
(lp5697
S'to'
p5698
asg3816
(lp5699
g1
asg1844
(lp5700
S'<N>'
p5701
asS'arrived'
p5702
(lp5703
g1095
asg3800
(lp5704
S'<N>'
p5705
asS'baby-girl'
p5706
(lp5707
g4846
asg2410
(lp5708
S'my'
p5709
aS'my'
p5710
asg1724
(lp5711
g2798
asg533
(lp5712
g4773
asg1781
(lp5713
S'<N>'
p5714
asg4644
(lp5715
S'<N>'
p5716
asg1570
(lp5717
g1
asg5370
(lp5718
S'the'
p5719
ag162
aS'your'
p5720
ag162
asS'chemistry'
p5721
(lp5722
S'that'
p5723
asg4146
(lp5724
S'back'
p5725
asg4631
(lp5726
g197
asg5348
(lp5727
S'nigga,'
p5728
asg806
(lp5729
S'<N>'
p5730
asS'apple'
p5731
(lp5732
g1986
asg3430
(lp5733
S'and'
p5734
asS'cup'
p5735
(lp5736
S'out'
p5737
aS'out'
p5738
asg2610
(lp5739
g4053
asg842
(lp5740
g1
asg5358
(lp5741
S'in'
p5742
asS'bought.'
p5743
(lp5744
S'<N>'
p5745
asg5061
(lp5746
g2105
aS'<N>'
p5747
aS'have'
p5748
aS'man,'
p5749
ag162
asS'sittin'
p5750
(lp5751
S'high'
p5752
asS'game'
p5753
(lp5754
g1480
aS'we'
p5755
asg5058
(lp5756
S'can'
p5757
asg5250
(lp5758
S'not'
p5759
ag4873
asg3285
(lp5760
S'em'
p5761
asg3817
(lp5762
S'<N>'
p5763
asg5145
(lp5764
S'what'
p5765
asg3548
(lp5766
S'my'
p5767
asg2907
(lp5768
S'you'
p5769
asS'Apes)'
p5770
(lp5771
S'<N>'
p5772
asg5078
(lp5773
g2186
asg5116
(lp5774
g162
asS"eatin'"
p5775
(lp5776
g3716
aS'at'
p5777
asg3715
(lp5778
S'and'
p5779
asg2970
(lp5780
S'dimes.'
p5781
asg3408
(lp5782
g5585
asg5074
(lp5783
S'niggas'
p5784
ag1629
ag3767
aS'bud'
p5785
aS'new'
p5786
ag5731
aS'shit'
p5787
asg547
(lp5788
g3901
aS'up'
p5789
aS'to'
p5790
aS'<N>'
p5791
aS'to'
p5792
aS'to'
p5793
aS'up'
p5794
aS'from'
p5795
aS'like'
p5796
aS'so'
p5797
asS'bounce'
p5798
(lp5799
g1934
aS"(fuckin'"
p5800
asg1749
(lp5801
S'<N>'
p5802
aS'<N>'
p5803
aS'<N>'
p5804
aS'<N>'
p5805
aS'<N>'
p5806
aS'<N>'
p5807
ag1
aS'<N>'
p5808
aS'<N>'
p5809
aS'<N>'
p5810
aS'<N>'
p5811
aS'<N>'
p5812
aS'<N>'
p5813
aS'<N>'
p5814
aS'<N>'
p5815
asg766
(lp5816
g3855
asg2194
(lp5817
S'<N>'
p5818
asg4599
(lp5819
g4987
asS'though'
p5820
(lp5821
S'he'
p5822
aS'<N>'
p5823
asg1736
(lp5824
S'slows'
p5825
asg3886
(lp5826
S'<N>'
p5827
asg442
(lp5828
g1906
ag2571
aS'50'
p5829
aS'50'
p5830
ag5743
aS'50'
p5831
aS'all'
p5832
aS'on'
p5833
aS'all'
p5834
ag315
aS'my'
p5835
aS'like'
p5836
aS'like'
p5837
aS'like'
p5838
ag315
aS'what'
p5839
aS'<N>'
p5840
aS'super'
p5841
aS'free'
p5842
ag315
aS'pleather'
p5843
ag4457
aS'him?'
p5844
aS'afraid'
p5845
aS'new'
p5846
aS'afraid'
p5847
ag3852
ag5005
ag3808
aS'that'
p5848
aS'posted'
p5849
aS'thinkin'
p5850
aS'thinkin'
p5851
ag3022
aS'sad)'
p5852
aS'shy'
p5853
ag1089
aS'mad,'
p5854
aS'told'
p5855
aS'told'
p5856
ag1954
ag1894
asS'eating'
p5857
(lp5858
g1992
asg5223
(lp5859
S'at'
p5860
asg4174
(lp5861
g5798
aS'bounce'
p5862
asg4916
(lp5863
S'got'
p5864
asg2833
(lp5865
S'<N>'
p5866
asg3129
(lp5867
g4730
aS'(going'
p5868
aS'(going'
p5869
asg3545
(lp5870
g1
asg5433
(lp5871
S'if'
p5872
aS'if'
p5873
asg4318
(lp5874
S'now'
p5875
asS'faith'
p5876
(lp5877
S'<N>'
p5878
asg3615
(lp5879
S'dope'
p5880
asg1845
(lp5881
S'<N>'
p5882
asg5133
(lp5883
g3917
asg5099
(lp5884
g1234
asg3412
(lp5885
S'be,'
p5886
aS'know'
p5887
aS'get'
p5888
aS'get'
p5889
ag3394
asg1959
(lp5890
S'night'
p5891
asg3934
(lp5892
S'<N>'
p5893
asg2693
(lp5894
S'the'
p5895
aS'(what,'
p5896
aS'his'
p5897
asg4213
(lp5898
S'your'
p5899
asg5118
(lp5900
S'on'
p5901
asg5311
(lp5902
S'would'
p5903
asg3718
(lp5904
g2361
asg5320
(lp5905
S'<N>'
p5906
ag197
asS'impressed'
p5907
(lp5908
g3719
asg2650
(lp5909
S'and'
p5910
asg1883
(lp5911
S'is'
p5912
asg3994
(lp5913
S'as'
p5914
asg2193
(lp5915
S"I'll"
p5916
asg525
(lp5917
S'they'
p5918
asg5631
(lp5919
S'me,'
p5920
asg5849
(lp5921
S'with'
p5922
asg2978
(lp5923
S'bet'
p5924
aS'be'
p5925
ag3094
aS'destroy'
p5926
aS'<N>'
p5927
asg3015
(lp5928
g2144
aS'wit'
p5929
aS'like'
p5930
aS'out'
p5931
aS'wit'
p5932
ag5706
aS'in'
p5933
aS'the'
p5934
aS'your'
p5935
aS'with'
p5936
aS'and'
p5937
aS'and'
p5938
ag3914
aS'up'
p5939
aS'on'
p5940
aS'even'
p5941
aS'in'
p5942
aS'and'
p5943
aS'on'
p5944
aS'<N>'
p5945
asg5012
(lp5946
S'<N>'
p5947
asg4940
(lp5948
S'up'
p5949
asg5474
(lp5950
S"I'm"
p5951
aS"I'm"
p5952
aS"I'm"
p5953
asg3882
(lp5954
S'<N>'
p5955
asg597
(lp5956
g1
asg5167
(lp5957
S'free'
p5958
aS'free'
p5959
aS'free'
p5960
aS'the'
p5961
aS'be'
p5962
aS'one'
p5963
aS'be'
p5964
ag4454
aS'get'
p5965
asg4804
(lp5966
S'of'
p5967
asg1972
(lp5968
S'but'
p5969
aS'<N>'
p5970
ag1
ag1
ag1
ag1
aS'<N>'
p5971
aS'<N>'
p5972
ag3397
asg5284
(lp5973
S'are'
p5974
asg4127
(lp5975
S'<N>'
p5976
asg4388
(lp5977
g4802
asg1589
(lp5978
g162
asg2625
(lp5979
S'<N>'
p5980
aS'and'
p5981
aS'dream'
p5982
asg2969
(lp5983
g3998
asg5138
(lp5984
S'Choo'
p5985
aS'what'
p5986
asg1719
(lp5987
g264
asg5037
(lp5988
g2803
asg5096
(lp5989
g523
aS'<N>'
p5990
asg5279
(lp5991
S'first'
p5992
ag4890
asg5212
(lp5993
S'fuck'
p5994
asg4418
(lp5995
S'<N>'
p5996
ag197
asg1949
(lp5997
S'<N>'
p5998
asg3870
(lp5999
g1
asg818
(lp6000
S'to'
p6001
aS'<N>'
p6002
aS'(?)'
p6003
ag706
ag4048
aS'<N>'
p6004
aS'<N>'
p6005
aS'<N>'
p6006
aS'<N>'
p6007
aS'<N>'
p6008
ag735
asg1718
(lp6009
S'rep'
p6010
asg5213
(lp6011
S'down'
p6012
asg5091
(lp6013
S'it'
p6014
asg2538
(lp6015
g1
asg5038
(lp6016
g4442
aS'he'
p6017
aS'look'
p6018
aS'super'
p6019
aS'do'
p6020
aS'do'
p6021
ag162
ag162
aS"I'm"
p6022
ag162
asg5602
(lp6023
g1
ag1
asg5437
(lp6024
g4897
asg4742
(lp6025
g5775
asg2301
(lp6026
g4720
asg3382
(lp6027
g162
asg3443
(lp6028
S'to'
p6029
aS'to'
p6030
asg4756
(lp6031
S'so'
p6032
asg4661
(lp6033
S'<N>'
p6034
asg5053
(lp6035
g3626
asg1824
(lp6036
S'with'
p6037
asg5656
(lp6038
g1
asg1484
(lp6039
S'Cleveland'
p6040
aS'Cleveland'
p6041
aS'Cleveland'
p6042
aS'Cleveland'
p6043
aS'Cleveland'
p6044
aS'Cleveland'
p6045
aS'Cleveland'
p6046
aS'Cleveland'
p6047
aS'<N>'
p6048
aS'get'
p6049
aS'that'
p6050
aS'that'
p6051
asg5127
(lp6052
g162
asg4228
(lp6053
S'<N>'
p6054
asg4015
(lp6055
S'<N>'
p6056
aS'<N>'
p6057
aS'<N>'
p6058
aS'<N>'
p6059
aS'<N>'
p6060
asg4654
(lp6061
g5750
asg3880
(lp6062
S'to'
p6063
aS'to'
p6064
asg3903
(lp6065
S'<N>'
p6066
asg5071
(lp6067
g4199
asg320
(lp6068
S'your'
p6069
ag2849
asg5141
(lp6070
S'what'
p6071
asg3488
(lp6072
S'but'
p6073
aS'to'
p6074
asg580
(lp6075
g5770
ag3654
asg904
(lp6076
g2502
asg1169
(lp6077
S'wit'
p6078
asg1817
(lp6079
S'day'
p6080
asg5446
(lp6081
S'at'
p6082
asS"waitin'"
p6083
(lp6084
S'for'
p6085
asS"weren't"
p6086
(lp6087
g5907
asg5142
(lp6088
S'Poe'
p6089
asg1303
(lp6090
S'play'
p6091
asS'Ritz'
p6092
(lp6093
S'what'
p6094
asg2018
(lp6095
S'what'
p6096
asg5929
(lp6097
g3209
aS'my'
p6098
aS'hoes'
p6099
aS'it'
p6100
ag4757
ag315
ag315
aS'<N>'
p6101
asg998
(lp6102
g990
asg5125
(lp6103
S'the'
p6104
asg4905
(lp6105
g220
asS'use'
p6106
(lp6107
g3868
asg3248
(lp6108
g1426
ag315
ag5599
aS'above,'
p6109
aS'being'
p6110
aS'the'
p6111
aS'the'
p6112
aS'the'
p6113
asS'bro...'
p6114
(lp6115
S'<N>'
p6116
asg5379
(lp6117
g150
asg2416
(lp6118
g271
asg4650
(lp6119
S'of'
p6120
asg3187
(lp6121
S'<N>'
p6122
aS'<N>'
p6123
asg4397
(lp6124
g1
ag1
asg4151
(lp6125
S'me'
p6126
aS'me'
p6127
aS'me'
p6128
aS'me'
p6129
asg5132
(lp6130
S'Pat'
p6131
aS'Pat'
p6132
asg2024
(lp6133
S'Scott'
p6134
aS'lame'
p6135
ag4619
ag2930
aS'high'
p6136
ag2002
aS'cudi,'
p6137
asg5622
(lp6138
g5632
asg5224
(lp6139
S'been'
p6140
asg1336
(lp6141
S"don't"
p6142
aS'<N>'
p6143
aS'all'
p6144
ag2611
aS'whenever'
p6145
aS'<N>'
p6146
asg1047
(lp6147
S"ridin'"
p6148
aS'get'
p6149
aS'the'
p6150
aS"lookin'"
p6151
ag4857
asg2628
(lp6152
S'And'
p6153
aS'And'
p6154
aS'And'
p6155
aS'And'
p6156
asg2249
(lp6157
g5570
aS'watchin'
p6158
asg4386
(lp6159
S'<N>'
p6160
asg4371
(lp6161
g3269
ag3264
ag1050
aS'(what,'
p6162
aS'is'
p6163
aS'is'
p6164
aS'is'
p6165
aS'is'
p6166
aS'is'
p6167
aS'is'
p6168
aS'one'
p6169
aS'in'
p6170
aS'is'
p6171
aS'be?'
p6172
aS'time,'
p6173
aS'nigga'
p6174
aS'shit'
p6175
asS'ride'
p6176
(lp6177
S'and'
p6178
asg4133
(lp6179
S'<N>'
p6180
asg5405
(lp6181
g2795
asg2979
(lp6182
S'your'
p6183
asg321
(lp6184
S'keep'
p6185
asg2905
(lp6186
S"learnin',"
p6187
aS'<N>'
p6188
aS'as'
p6189
aS'high'
p6190
aS'<N>'
p6191
aS'<N>'
p6192
aS'<N>'
p6193
aS'<N>'
p6194
aS'<N>'
p6195
aS'<N>'
p6196
aS'to'
p6197
aS'<N>'
p6198
aS'to'
p6199
asg3093
(lp6200
g5574
ag3287
asg5677
(lp6201
S'more'
p6202
asg3551
(lp6203
g5691
asg1557
(lp6204
g4767
asg2547
(lp6205
g4589
asg2591
(lp6206
S'<N>'
p6207
asS'sit'
p6208
(lp6209
g2964
asg1129
(lp6210
g5662
asg4635
(lp6211
S'<N>'
p6212
asg1877
(lp6213
S'and'
p6214
asg565
(lp6215
S'<N>'
p6216
asg2543
(lp6217
S'the'
p6218
aS'the'
p6219
asg952
(lp6220
S'<N>'
p6221
asg4396
(lp6222
S'different'
p6223
asg3283
(lp6224
S'<N>'
p6225
asg3823
(lp6226
S'<N>'
p6227
aS'<N>'
p6228
asg6135
(lp6229
S'<N>'
p6230
asg1542
(lp6231
S'to'
p6232
asg5182
(lp6233
S'day'
p6234
asg4262
(lp6235
S'you'
p6236
asg1702
(lp6237
S"don't"
p6238
aS"don't"
p6239
asg1734
(lp6240
S"can't"
p6241
ag2939
aS'closer'
p6242
asS'sweet,'
p6243
(lp6244
g4806
asg4080
(lp6245
S'hear'
p6246
ag2810
aS'<N>'
p6247
asg2968
(lp6248
g2730
asg4569
(lp6249
S'<N>'
p6250
asg1328
(lp6251
S'decease'
p6252
asg5598
(lp6253
S'nigga'
p6254
asg868
(lp6255
S'<N>'
p6256
asg5368
(lp6257
S'can'
p6258
asg5500
(lp6259
g162
asg1747
(lp6260
S'on'
p6261
asg4214
(lp6262
g2162
aS"rollin'"
p6263
aS'and'
p6264
aS'and'
p6265
aS"I'll"
p6266
aS'be'
p6267
aS'smoke'
p6268
ag4521
asg5685
(lp6269
g6176
asg5432
(lp6270
S'the'
p6271
aS'the'
p6272
asg5135
(lp6273
S'what'
p6274
asg3776
(lp6275
g3598
ag4884
asg5185
(lp6276
S'to'
p6277
asg3001
(lp6278
g2261
asg5737
(lp6279
g3773
aS'they'
p6280
aS'on'
p6281
aS'on'
p6282
aS'him'
p6283
aS'<N>'
p6284
aS'and'
p6285
aS'and'
p6286
aS'my'
p6287
aS'<N>'
p6288
ag2455
aS'<N>'
p6289
ag5857
ag315
aS'and'
p6290
asg2621
(lp6291
S'<N>'
p6292
asg6010
(lp6293
S'my'
p6294
aS'that'
p6295
asg3385
(lp6296
S'<N>'
p6297
aS"I've"
p6298
asg1285
(lp6299
S'<N>'
p6300
asg5467
(lp6301
S'how'
p6302
asg1831
(lp6303
S'feel'
p6304
asg2352
(lp6305
g315
asg2948
(lp6306
S'shit'
p6307
asg4073
(lp6308
g4903
asS'surely'
p6309
(lp6310
g3406
asS"comin',"
p6311
(lp6312
S'<N>'
p6313
asg2651
(lp6314
S'talk)'
p6315
aS'talk)'
p6316
asg3410
(lp6317
g6106
aS'not'
p6318
aS'just'
p6319
aS'take'
p6320
aS'this'
p6321
aS'watch'
p6322
aS'be'
p6323
asg3411
(lp6324
g4561
aS"'em"
p6325
aS'two'
p6326
aS'two'
p6327
aS'the'
p6328
aS'the'
p6329
aS'the'
p6330
ag627
asg2555
(lp6331
S'<N>'
p6332
asg5092
(lp6333
S'to'
p6334
asg1682
(lp6335
g379
asg1273
(lp6336
S'in'
p6337
aS"takin'"
p6338
aS"that's"
p6339
aS'with'
p6340
aS'on'
p6341
asg2869
(lp6342
g6243
asg3723
(lp6343
S'<N>'
p6344
asg3995
(lp6345
g315
aS'cool,'
p6346
asg3414
(lp6347
S'<N>'
p6348
asg2190
(lp6349
S'<N>'
p6350
asg5886
(lp6351
S'one'
p6352
asg1573
(lp6353
g4917
asg6172
(lp6354
S'<N>'
p6355
asg5657
(lp6356
S'<N>'
p6357
asg3140
(lp6358
g1286
asS'Hawk'
p6359
(lp6360
S'what'
p6361
asg5077
(lp6362
S'be'
p6363
asS'exactly'
p6364
(lp6365
S'why'
p6366
aS'<N>'
p6367
asg5039
(lp6368
g2175
ag5753
aS'is'
p6369
aS'is'
p6370
aS'is'
p6371
ag5721
asg5440
(lp6372
g1
asg4270
(lp6373
S'but'
p6374
asg4138
(lp6375
S"won't"
p6376
asg2997
(lp6377
S'them'
p6378
asg5215
(lp6379
S'the'
p6380
aS'the'
p6381
aS'the'
p6382
aS'the'
p6383
aS'the'
p6384
aS'the'
p6385
aS'the'
p6386
aS'the'
p6387
aS'the'
p6388
aS'the'
p6389
aS'the'
p6390
aS'the'
p6391
aS'the'
p6392
aS'the'
p6393
aS'the'
p6394
asg595
(lp6395
S'gatta'
p6396
aS'gatta'
p6397
asS'embody'
p6398
(lp6399
S'him'
p6400
asg5924
(lp6401
S'you'
p6402
asg483
(lp6403
S'lame,'
p6404
ag2353
asg6131
(lp6405
S'what'
p6406
aS'on'
p6407
aS'what'
p6408
asg4643
(lp6409
S'and'
p6410
asg2646
(lp6411
S'like'
p6412
asg5094
(lp6413
S'all'
p6414
asg4072
(lp6415
g315
ag5876
ag1368
aS'you'
p6416
aS'you'
p6417
ag2434
aS'pillow'
p6418
aS'the'
p6419
aS'made'
p6420
aS'made'
p6421
aS'made'
p6422
aS'<N>'
p6423
aS'myself'
p6424
aS'to'
p6425
ag315
asS'need'
p6426
(lp6427
S'to'
p6428
aS'for'
p6429
aS"y'all"
p6430
aS"y'all"
p6431
aS"y'all"
p6432
aS"y'all"
p6433
aS"y'all"
p6434
aS'what'
p6435
aS'to'
p6436
aS'to'
p6437
aS'to'
p6438
aS'Maui'
p6439
aS'Maui'
p6440
aS'to'
p6441
aS'to'
p6442
aS'Maui'
p6443
aS'to'
p6444
asg1801
(lp6445
g2753
asg5845
(lp6446
S'at'
p6447
aS'of'
p6448
asg5081
(lp6449
S'the'
p6450
asg1717
(lp6451
S'like'
p6452
aS'<N>'
p6453
asg3714
(lp6454
S'<N>'
p6455
asg6187
(lp6456
S'<N>'
p6457
asg1692
(lp6458
S'can'
p6459
asg5781
(lp6460
S'<N>'
p6461
aS'<N>'
p6462
asg2013
(lp6463
S'<N>'
p6464
aS'<N>'
p6465
aS'<N>'
p6466
asS'who'
p6467
(lp6468
g1471
aS'<N>'
p6469
ag5644
aS'else'
p6470
ag1567
ag5605
ag162
asg3544
(lp6471
g1340
asg632
(lp6472
S'<N>'
p6473
asg5176
(lp6474
g162
aS'back'
p6475
aS'my'
p6476
asS'Yeah)'
p6477
(lp6478
S'<N>'
p6479
asg3554
(lp6480
g162
ag162
ag162
ag162
ag162
asg1483
(lp6481
g1564
aS"I'm"
p6482
ag162
asg5055
(lp6483
S'shit'
p6484
ag2504
aS'niggas'
p6485
asg2000
(lp6486
S'and'
p6487
asg4632
(lp6488
S'<N>'
p6489
asg1703
(lp6490
g6311
aS'my'
p6491
aS'<N>'
p6492
asg6089
(lp6493
S'what'
p6494
asg5406
(lp6495
S'wants'
p6496
asg2085
(lp6497
g4511
asg4649
(lp6498
S'<N>'
p6499
asg1730
(lp6500
S'to'
p6501
asg535
(lp6502
g5735
aS'cup'
p6503
asg2941
(lp6504
S'your'
p6505
aS'your'
p6506
asg3421
(lp6507
S'<N>'
p6508
asg943
(lp6509
g4990
asg4907
(lp6510
S'no'
p6511
asg5114
(lp6512
g3600
asg1696
(lp6513
g698
asg1292
(lp6514
S'and'
p6515
asg3532
(lp6516
g2426
asg1694
(lp6517
g5667
asg5825
(lp6518
S'up'
p6519
asg1789
(lp6520
S'<N>'
p6521
aS'<N>'
p6522
aS'<N>'
p6523
aS'and'
p6524
asg5880
(lp6525
S'has'
p6526
asg3993
(lp6527
g3204
asg5221
(lp6528
S'on'
p6529
aS'them'
p6530
asg4664
(lp6531
S'<N>'
p6532
asg3106
(lp6533
S'of'
p6534
asg1748
(lp6535
S'with'
p6536
aS'that'
p6537
aS'who'
p6538
asS'words'
p6539
(lp6540
S'how'
p6541
aS'<N>'
p6542
aS'and'
p6543
ag4181
asg4660
(lp6544
g364
asg5227
(lp6545
S'mixed'
p6546
asg3233
(lp6547
S'just'
p6548
asg2086
(lp6549
S'they'
p6550
asg5198
(lp6551
g162
asg5853
(lp6552
S"(don't"
p6553
asS'she'
p6554
(lp6555
g880
aS'had'
p6556
aS'at'
p6557
ag1278
aS'wanna'
p6558
asg6148
(lp6559
g349
asg6242
(lp6560
S'bring'
p6561
asg4121
(lp6562
S'<N>'
p6563
asg1788
(lp6564
S'girls'
p6565
asg6526
(lp6566
g5702
asg4578
(lp6567
S'me'
p6568
ag3167
asg555
(lp6569
S'mind'
p6570
asg885
(lp6571
S'<N>'
p6572
asg3931
(lp6573
g2895
asg3306
(lp6574
g1
ag162
ag162
ag162
ag162
aS'have'
p6575
aS'how'
p6576
asS"passin'"
p6577
(lp6578
S'<N>'
p6579
asg801
(lp6580
g2556
asg2192
(lp6581
g162
asg449
(lp6582
g2485
asg3113
(lp6583
g1
ag1
asg1950
(lp6584
S'<N>'
p6585
ag6467
asg6137
(lp6586
g1
asg5424
(lp6587
g3678
aS'gonna'
p6588
asg5843
(lp6589
g2458
asg5402
(lp6590
S'me'
p6591
asg3843
(lp6592
S'<N>'
p6593
asg3925
(lp6594
S'to'
p6595
asg5588
(lp6596
S'nigga'
p6597
asg4714
(lp6598
S'just'
p6599
aS'just'
p6600
aS'just'
p6601
asS"'till"
p6602
(lp6603
S'my'
p6604
asg5173
(lp6605
S'off'
p6606
aS'Lifted'
p6607
asg2487
(lp6608
g315
aS'like'
p6609
ag3964
aS'the'
p6610
aS'ok'
p6611
aS'me'
p6612
aS'me'
p6613
aS'me'
p6614
aS'me'
p6615
asg4979
(lp6616
S'with'
p6617
asg5103
(lp6618
S'to'
p6619
aS'what'
p6620
asg4258
(lp6621
g6602
asg3239
(lp6622
S'put'
p6623
asg4656
(lp6624
g4066
asg4452
(lp6625
S'<N>'
p6626
asg5111
(lp6627
g412
aS'why'
p6628
asg5040
(lp6629
S'the'
p6630
ag2711
ag303
ag395
ag315
ag162
ag162
aS'please'
p6631
aS'Cudi'
p6632
aS"it's"
p6633
ag6554
aS'let'
p6634
aS'this'
p6635
aS'you'
p6636
aS'this'
p6637
ag162
aS'this'
p6638
aS'this'
p6639
aS'this'
p6640
ag4242
aS"I'm"
p6641
aS"I'm"
p6642
aS"I'm"
p6643
aS"I'm"
p6644
aS'all'
p6645
aS'you'
p6646
aS'to'
p6647
aS'this'
p6648
aS'ine'
p6649
aS'give'
p6650
aS'ine'
p6651
aS'if'
p6652
aS'if'
p6653
aS'if'
p6654
aS'if'
p6655
aS'if'
p6656
aS'if'
p6657
asg4380
(lp6658
S'fools,'
p6659
asg1942
(lp6660
S'more'
p6661
aS'more'
p6662
asS'will'
p6663
(lp6664
g5647
ag311
aS'always'
p6665
aS'get'
p6666
aS'<N>'
p6667
aS'my'
p6668
aS'my'
p6669
asS'Kindergarten'
p6670
(lp6671
g6083
asg3141
(lp6672
S'wild'
p6673
ag3950
aS'wild'
p6674
aS'wild'
p6675
aS'<N>'
p6676
ag2008
aS'wild)'
p6677
asS'askes'
p6678
(lp6679
g244
asg5852
(lp6680
S'<N>'
p6681
asg757
(lp6682
g6208
ag6426
ag902
aS'wanna'
p6683
ag6663
aS'<N>'
p6684
aS'are'
p6685
aS'<N>'
p6686
aS'<N>'
p6687
aS'<N>'
p6688
aS'feel'
p6689
ag4170
aS"gon'"
p6690
aS'might'
p6691
aS'really'
p6692
aS'really'
p6693
ag5566
ag6086
aS'probably'
p6694
aS"wasn't"
p6695
aS"can't"
p6696
aS'can'
p6697
aS'know'
p6698
ag2263
asg4528
(lp6699
S'<N>'
p6700
aS'<N>'
p6701
aS'<N>'
p6702
asg4108
(lp6703
S'some'
p6704
asg4385
(lp6705
S'up'
p6706
asg4560
(lp6707
S'<N>'
p6708
asg781
(lp6709
g6577
aS'that,'
p6710
asg2511
(lp6711
S'about'
p6712
asg764
(lp6713
S'you'
p6714
aS'you'
p6715
aS'you'
p6716
ag3908
aS'you'
p6717
aS'you'
p6718
asg5401
(lp6719
S'to'
p6720
asg4577
(lp6721
g3087
asg3849
(lp6722
S'<N>'
p6723
aS'<N>'
p6724
asg4778
(lp6725
g3121
asg4825
(lp6726
S'<N>'
p6727
asg5413
(lp6728
g315
aS'about'
p6729
asg5063
(lp6730
S'<N>'
p6731
aS'<N>'
p6732
aS'<N>'
p6733
asg1776
(lp6734
g1
aS'high'
p6735
aS'high'
p6736
asg2887
(lp6737
S'that'
p6738
aS'man'
p6739
asg5488
(lp6740
S'my'
p6741
asg5389
(lp6742
S'all'
p6743
asg5499
(lp6744
S'on'
p6745
asg4417
(lp6746
S'life'
p6747
aS'life'
p6748
asg1243
(lp6749
S'<N>'
p6750
asg5887
(lp6751
g6364
aS'<N>'
p6752
aS'<N>'
p6753
aS'you'
p6754
aS'you'
p6755
aS'you'
p6756
aS'that'
p6757
aS'the'
p6758
aS'that'
p6759
aS'that'
p6760
aS'how'
p6761
aS'you'
p6762
asg3796
(lp6763
S'<N>'
p6764
asg767
(lp6765
S'what'
p6766
aS'what'
p6767
asg1124
(lp6768
S'to'
p6769
ag999
aS'the'
p6770
ag315
ag4776
ag3077
ag315
ag315
aS'the'
p6771
aS'that,'
p6772
aS'that'
p6773
aS'you'
p6774
aS'them,'
p6775
aS'who'
p6776
aS'me,'
p6777
aS'your'
p6778
aS'<N>'
p6779
aS'what'
p6780
aS'fuck'
p6781
ag315
ag315
ag1290
aS'this'
p6782
aS'hoes'
p6783
ag4365
aS'some'
p6784
aS'my'
p6785
aS'my'
p6786
aS'<N>'
p6787
aS'<N>'
p6788
ag1386
ag5013
aS'damn'
p6789
aS'the'
p6790
asg4646
(lp6791
S'on'
p6792
aS'<N>'
p6793
asg5158
(lp6794
S'his'
p6795
asg6252
(lp6796
S'<N>'
p6797
asg4639
(lp6798
g2933
ag2417
ag2806
ag6359
ag6092
ag3735
aS'<N>'
p6799
aS'sky'
p6800
aS'aint'
p6801
aS'that'
p6802
aS'sky'
p6803
aS'aint'
p6804
aS'<N>'
p6805
aS'baby'
p6806
asg820
(lp6807
S'me'
p6808
asg3650
(lp6809
g5820
asg3872
(lp6810
S'back,'
p6811
asg5104
(lp6812
S'still'
p6813
asg4283
(lp6814
S'<N>'
p6815
asg4036
(lp6816
g373
asg1947
(lp6817
g5544
asg3191
(lp6818
S'with'
p6819
aS'with'
p6820
aS'with'
p6821
aS'with'
p6822
aS'with'
p6823
asg1550
(lp6824
S'<N>'
p6825
asg1302
(lp6826
g4209
asg4251
(lp6827
S'and'
p6828
aS'<N>'
p6829
asg5505
(lp6830
S'<N>'
p6831
asg5315
(lp6832
S'like'
p6833
aS'like'
p6834
asg554
(lp6835
S'<N>'
p6836
asg5277
(lp6837
S'at'
p6838
aS'at'
p6839
aS'at'
p6840
aS'at'
p6841
aS'at'
p6842
aS'at'
p6843
aS'at'
p6844
asg613
(lp6845
S'the'
p6846
asg2919
(lp6847
g3754
ag1196
aS'Wowie,'
p6848
aS'Wowie'
p6849
aS'Wowie'
p6850
aS'Wowie'
p6851
aS'Wowie'
p6852
aS'Wowie'
p6853
aS'Wowie'
p6854
aS'Wowie'
p6855
aS'Wowie'
p6856
aS'Wowie'
p6857
asg5308
(lp6858
S'1]'
p6859
aS'2]'
p6860
asg2707
(lp6861
S'who'
p6862
asg1229
(lp6863
S'the'
p6864
aS'the'
p6865
aS"y'all"
p6866
aS'what'
p6867
aS'me'
p6868
aS'<N>'
p6869
aS'you'
p6870
aS'you'
p6871
aS'some'
p6872
asg240
(lp6873
S'up'
p6874
asg5363
(lp6875
S'need'
p6876
aS'need'
p6877
asg3888
(lp6878
g4186
asg2686
(lp6879
S'seems'
p6880
aS'seems'
p6881
asg2391
(lp6882
S'<N>'
p6883
asg3818
(lp6884
S'<N>'
p6885
asg3476
(lp6886
g162
asg5854
(lp6887
g162
asg3112
(lp6888
g162
asg3926
(lp6889
g3745
asg5434
(lp6890
g2672
aS'look'
p6891
aS'thank'
p6892
asg5252
(lp6893
S'recognize'
p6894
asg5129
(lp6895
g6398
asg1274
(lp6896
S'call'
p6897
asg5969
(lp6898
S'see'
p6899
aS'see'
p6900
ag6309
aS"I'm"
p6901
aS'the'
p6902
aS'like'
p6903
ag162
ag162
aS"I'm"
p6904
aS'the'
p6905
ag162
asg1720
(lp6906
S'<N>'
p6907
asg3721
(lp6908
S'<N>'
p6909
asg5785
(lp6910
S'light'
p6911
asg4462
(lp6912
g2368
ag6678
aS'can'
p6913
ag3110
ag1059
ag1670
ag3330
aS'is'
p6914
ag5638
asg5134
(lp6915
S'what'
p6916
asg1148
(lp6917
g315
aS'<N>'
p6918
ag2117
aS'me'
p6919
aS'these'
p6920
aS'these'
p6921
aS'these'
p6922
asg1097
(lp6923
S'as'
p6924
asg838
(lp6925
g2200
asg2638
(lp6926
g2108
asg1657
(lp6927
g6477
asg574
(lp6928
g268
asg6894
(lp6929
S'real'
p6930
aS'real'
p6931
asg2553
(lp6932
g2227
asg6649
(lp6933
S'even'
p6934
aS'even'
p6935
asg3885
(lp6936
S'<N>'
p6937
asg5330
(lp6938
S'get'
p6939
asg5186
(lp6940
S'passed'
p6941
asg4497
(lp6942
S'niggas'
p6943
aS'girls'
p6944
asg5211
(lp6945
g6539
asg492
(lp6946
S'here'
p6947
asg5093
(lp6948
S'old'
p6949
ag6670
ag162
aS'it'
p6950
aS'you'
p6951
aS'how'
p6952
ag162
ag162
aS'<N>'
p6953
aS'the'
p6954
asg4648
(lp6955
S'<N>'
p6956
asg3547
(lp6957
S'up'
p6958
asg3362
(lp6959
g6114
ag3896
asg4035
(lp6960
S'<N>'
p6961
asg4600
(lp6962
S'were'
p6963
aS'all'
p6964
asg538
(lp6965
S'<N>'
p6966
ag197
asg448
(lp6967
g3156
asg4640
(lp6968
S'bitch'
p6969
as.